ARM GAS  /run/user/1000/ccey5E38.s 			page 1


   1              		.cpu cortex-m3
   2              		.arch armv7-m
   3              		.fpu softvfp
   4              		.eabi_attribute 20, 1
   5              		.eabi_attribute 21, 1
   6              		.eabi_attribute 23, 3
   7              		.eabi_attribute 24, 1
   8              		.eabi_attribute 25, 1
   9              		.eabi_attribute 26, 1
  10              		.eabi_attribute 30, 1
  11              		.eabi_attribute 34, 1
  12              		.eabi_attribute 18, 4
  13              		.file	"main.c"
  14              		.text
  15              	.Ltext0:
  16              		.cfi_sections	.debug_frame
  17              		.file 1 "Core/Src/main.c"
  18              		.section	.text.Error_Handler,"ax",%progbits
  19              		.align	1
  20              		.global	Error_Handler
  21              		.syntax unified
  22              		.thumb
  23              		.thumb_func
  25              	Error_Handler:
  26              	.LFB129:
   1:Core/Src/main.c **** /* USER CODE BEGIN Header */
   2:Core/Src/main.c **** /**
   3:Core/Src/main.c ****  ******************************************************************************
   4:Core/Src/main.c ****  * @file           : main.c
   5:Core/Src/main.c ****  * @brief          : Main program body
   6:Core/Src/main.c ****  ******************************************************************************
   7:Core/Src/main.c ****  * @attention
   8:Core/Src/main.c ****  *
   9:Core/Src/main.c ****  * Copyright (c) 2023 STMicroelectronics.
  10:Core/Src/main.c ****  * All rights reserved.
  11:Core/Src/main.c ****  *
  12:Core/Src/main.c ****  * This software is licensed under terms that can be found in the LICENSE file
  13:Core/Src/main.c ****  * in the root directory of this software component.
  14:Core/Src/main.c ****  * If no LICENSE file comes with this software, it is provided AS-IS.
  15:Core/Src/main.c ****  *
  16:Core/Src/main.c ****  ******************************************************************************
  17:Core/Src/main.c ****  */
  18:Core/Src/main.c **** /* USER CODE END Header */
  19:Core/Src/main.c **** /* Includes ------------------------------------------------------------------*/
  20:Core/Src/main.c **** #include "main.h"
  21:Core/Src/main.c **** #include "adc.h"
  22:Core/Src/main.c **** #include "spi.h"
  23:Core/Src/main.c **** #include "usb.h"
  24:Core/Src/main.c **** #include "gpio.h"
  25:Core/Src/main.c **** 
  26:Core/Src/main.c **** /* Private includes ----------------------------------------------------------*/
  27:Core/Src/main.c **** /* USER CODE BEGIN Includes */
  28:Core/Src/main.c **** #include "nrf24.h"
  29:Core/Src/main.c **** /* USER CODE END Includes */
  30:Core/Src/main.c **** 
  31:Core/Src/main.c **** /* Private typedef -----------------------------------------------------------*/
  32:Core/Src/main.c **** /* USER CODE BEGIN PTD */
ARM GAS  /run/user/1000/ccey5E38.s 			page 2


  33:Core/Src/main.c **** 
  34:Core/Src/main.c **** /* USER CODE END PTD */
  35:Core/Src/main.c **** 
  36:Core/Src/main.c **** /* Private define ------------------------------------------------------------*/
  37:Core/Src/main.c **** /* USER CODE BEGIN PD */
  38:Core/Src/main.c **** #define TOTAL_CHANNELS 3
  39:Core/Src/main.c **** #define X_DEAD_ZONE 300 
  40:Core/Src/main.c **** #define Y_DEAD_ZONE 200
  41:Core/Src/main.c **** #define T_DEAD_ZONE 200
  42:Core/Src/main.c **** #define ADC_MAX 4095
  43:Core/Src/main.c **** #define ADC_MIN 0
  44:Core/Src/main.c **** #define X_MID_BOUND 1770
  45:Core/Src/main.c **** #define Y_MID_BOUND 2023
  46:Core/Src/main.c **** #define T_MID_BOUND 2023
  47:Core/Src/main.c **** #define X_TOP_BOUND X_MID_BOUND + X_DEAD_ZONE
  48:Core/Src/main.c **** #define X_BOT_BOUND X_MID_BOUND - X_DEAD_ZONE
  49:Core/Src/main.c **** #define Y_TOP_BOUND Y_MID_BOUND + Y_DEAD_ZONE
  50:Core/Src/main.c **** #define Y_BOT_BOUND Y_MID_BOUND - Y_DEAD_ZONE
  51:Core/Src/main.c **** #define T_TOP_BOUND T_MID_BOUND + T_DEAD_ZONE
  52:Core/Src/main.c **** #define T_BOT_BOUND T_MID_BOUND - T_DEAD_ZONE
  53:Core/Src/main.c **** /* USER CODE END PD */
  54:Core/Src/main.c **** 
  55:Core/Src/main.c **** /* Private macro -------------------------------------------------------------*/
  56:Core/Src/main.c **** /* USER CODE BEGIN PM */
  57:Core/Src/main.c **** 
  58:Core/Src/main.c **** /* USER CODE END PM */
  59:Core/Src/main.c **** 
  60:Core/Src/main.c **** /* Private variables ---------------------------------------------------------*/
  61:Core/Src/main.c **** 
  62:Core/Src/main.c **** /* USER CODE BEGIN PV */
  63:Core/Src/main.c **** struct __attribute__((__packed__)) remote_msg {
  64:Core/Src/main.c ****     uint8_t start;
  65:Core/Src/main.c ****     uint8_t button;
  66:Core/Src/main.c ****     int16_t x_axis;
  67:Core/Src/main.c ****     int16_t y_axis;
  68:Core/Src/main.c ****     int16_t twist;
  69:Core/Src/main.c **** };
  70:Core/Src/main.c **** 
  71:Core/Src/main.c **** union msg_tx {
  72:Core/Src/main.c ****     struct remote_msg deserial;
  73:Core/Src/main.c ****     uint8_t serial[8];
  74:Core/Src/main.c **** };
  75:Core/Src/main.c **** 
  76:Core/Src/main.c **** volatile union msg_tx msg_tx;
  77:Core/Src/main.c **** volatile uint8_t button_down = 0;
  78:Core/Src/main.c **** /* USER CODE END PV */
  79:Core/Src/main.c **** 
  80:Core/Src/main.c **** /* Private function prototypes -----------------------------------------------*/
  81:Core/Src/main.c **** void SystemClock_Config(void);
  82:Core/Src/main.c **** /* USER CODE BEGIN PFP */
  83:Core/Src/main.c **** /* USER CODE END PFP */
  84:Core/Src/main.c **** 
  85:Core/Src/main.c **** /* Private user code ---------------------------------------------------------*/
  86:Core/Src/main.c **** /* USER CODE BEGIN 0 */
  87:Core/Src/main.c **** 
  88:Core/Src/main.c **** /* USER CODE END 0 */
  89:Core/Src/main.c **** 
ARM GAS  /run/user/1000/ccey5E38.s 			page 3


  90:Core/Src/main.c **** /**
  91:Core/Src/main.c ****   * @brief  The application entry point.
  92:Core/Src/main.c ****   * @retval int
  93:Core/Src/main.c ****   */
  94:Core/Src/main.c **** int main(void)
  95:Core/Src/main.c **** {
  96:Core/Src/main.c ****   /* USER CODE BEGIN 1 */
  97:Core/Src/main.c ****     msg_tx.deserial.start = 0x01;
  98:Core/Src/main.c ****     msg_tx.deserial.button = 0x00;
  99:Core/Src/main.c ****     msg_tx.deserial.x_axis = 0x0000;
 100:Core/Src/main.c ****     msg_tx.deserial.y_axis = 0x0000;
 101:Core/Src/main.c ****     msg_tx.deserial.twist = 0x0000;
 102:Core/Src/main.c ****   /* USER CODE END 1 */
 103:Core/Src/main.c **** 
 104:Core/Src/main.c ****   /* MCU Configuration--------------------------------------------------------*/
 105:Core/Src/main.c **** 
 106:Core/Src/main.c ****   /* Reset of all peripherals, Initializes the Flash interface and the Systick. */
 107:Core/Src/main.c ****   HAL_Init();
 108:Core/Src/main.c **** 
 109:Core/Src/main.c ****   /* USER CODE BEGIN Init */
 110:Core/Src/main.c **** 
 111:Core/Src/main.c ****   /* USER CODE END Init */
 112:Core/Src/main.c **** 
 113:Core/Src/main.c ****   /* Configure the system clock */
 114:Core/Src/main.c ****   SystemClock_Config();
 115:Core/Src/main.c **** 
 116:Core/Src/main.c ****   /* USER CODE BEGIN SysInit */
 117:Core/Src/main.c **** 
 118:Core/Src/main.c ****   /* USER CODE END SysInit */
 119:Core/Src/main.c **** 
 120:Core/Src/main.c ****   /* Initialize all configured peripherals */
 121:Core/Src/main.c ****   MX_GPIO_Init();
 122:Core/Src/main.c ****   MX_SPI1_Init();
 123:Core/Src/main.c ****   MX_ADC1_Init();
 124:Core/Src/main.c ****   MX_USB_PCD_Init();
 125:Core/Src/main.c ****   /* USER CODE BEGIN 2 */
 126:Core/Src/main.c ****     HAL_ADCEx_Calibration_Start(&hadc1);
 127:Core/Src/main.c ****     HAL_Delay(10);
 128:Core/Src/main.c **** 
 129:Core/Src/main.c ****     nRF24_Init();
 130:Core/Src/main.c ****     while(!nRF24_Check());
 131:Core/Src/main.c **** 
 132:Core/Src/main.c ****     nRF24_SetAddrWidth(5);
 133:Core/Src/main.c ****     uint8_t id[6] = {1, 0, 0, 0, 255, 0};
 134:Core/Src/main.c ****     nRF24_DisableAA(0xFF);
 135:Core/Src/main.c ****     nRF24_SetRFChannel(70);
 136:Core/Src/main.c ****     nRF24_SetTXPower(nRF24_TXPWR_0dBm);
 137:Core/Src/main.c ****     nRF24_SetDataRate(nRF24_DR_250kbps);
 138:Core/Src/main.c ****     nRF24_SetAddr(nRF24_PIPETX,id);
 139:Core/Src/main.c ****     nRF24_SetOperationalMode(nRF24_MODE_TX);
 140:Core/Src/main.c ****     nRF24_SetPowerMode(nRF24_PWR_UP);
 141:Core/Src/main.c ****   /* USER CODE END 2 */
 142:Core/Src/main.c **** 
 143:Core/Src/main.c ****   /* Infinite loop */
 144:Core/Src/main.c ****   /* USER CODE BEGIN WHILE */
 145:Core/Src/main.c ****     uint8_t adc_channel = 0;
 146:Core/Src/main.c ****     uint32_t timestamp = HAL_GetTick();
ARM GAS  /run/user/1000/ccey5E38.s 			page 4


 147:Core/Src/main.c **** 
 148:Core/Src/main.c ****     uint8_t status = 0;
 149:Core/Src/main.c ****     while (1) {
 150:Core/Src/main.c ****         volatile int32_t x_axis, y_axis, twist; 
 151:Core/Src/main.c ****         adc_channel = 0;
 152:Core/Src/main.c ****         x_axis = 0;
 153:Core/Src/main.c ****         y_axis = 0;
 154:Core/Src/main.c ****         twist = 0;
 155:Core/Src/main.c ****         if (HAL_GetTick() - timestamp >= 5) {
 156:Core/Src/main.c ****             while(adc_channel < TOTAL_CHANNELS) {
 157:Core/Src/main.c ****                 HAL_ADC_Start(&hadc1);
 158:Core/Src/main.c ****                 HAL_ADC_PollForConversion(&hadc1, 1);
 159:Core/Src/main.c **** 
 160:Core/Src/main.c ****                 switch(adc_channel) {
 161:Core/Src/main.c ****                     case 0:
 162:Core/Src/main.c ****                         x_axis = HAL_ADC_GetValue(&hadc1);
 163:Core/Src/main.c ****                         break;
 164:Core/Src/main.c ****                     case 1:
 165:Core/Src/main.c ****                         y_axis = HAL_ADC_GetValue(&hadc1);
 166:Core/Src/main.c ****                         break;
 167:Core/Src/main.c ****                     case 2:
 168:Core/Src/main.c ****                         twist = HAL_ADC_GetValue(&hadc1);
 169:Core/Src/main.c ****                         break;
 170:Core/Src/main.c ****                     default:
 171:Core/Src/main.c ****                         adc_channel = 4;
 172:Core/Src/main.c ****                 };
 173:Core/Src/main.c **** 
 174:Core/Src/main.c ****                 adc_channel += 1;
 175:Core/Src/main.c ****             }
 176:Core/Src/main.c **** 
 177:Core/Src/main.c ****             if (x_axis < X_BOT_BOUND) {
 178:Core/Src/main.c ****                 msg_tx.deserial.x_axis = (x_axis - X_BOT_BOUND) * 1000/ X_BOT_BOUND;
 179:Core/Src/main.c ****             }
 180:Core/Src/main.c ****             else if (x_axis > X_TOP_BOUND) {
 181:Core/Src/main.c ****                 msg_tx.deserial.x_axis = (x_axis - X_TOP_BOUND) * 1000 / X_BOT_BOUND;
 182:Core/Src/main.c ****             }
 183:Core/Src/main.c ****             else {
 184:Core/Src/main.c ****                 msg_tx.deserial.x_axis = 0;
 185:Core/Src/main.c ****             }
 186:Core/Src/main.c **** 
 187:Core/Src/main.c ****             if (y_axis < Y_BOT_BOUND) {
 188:Core/Src/main.c ****                 msg_tx.deserial.y_axis = (y_axis - Y_BOT_BOUND) * 1000 / Y_BOT_BOUND;
 189:Core/Src/main.c ****             }
 190:Core/Src/main.c ****             else if (y_axis > Y_TOP_BOUND) {
 191:Core/Src/main.c ****                 msg_tx.deserial.y_axis = (y_axis - Y_TOP_BOUND) * 1000 / Y_BOT_BOUND;
 192:Core/Src/main.c ****             }
 193:Core/Src/main.c ****             else {
 194:Core/Src/main.c ****                 msg_tx.deserial.y_axis = 0;
 195:Core/Src/main.c ****             }
 196:Core/Src/main.c **** 
 197:Core/Src/main.c ****             if (twist < T_BOT_BOUND) {
 198:Core/Src/main.c ****                 msg_tx.deserial.twist = (twist - T_BOT_BOUND) * 1000 / T_BOT_BOUND;
 199:Core/Src/main.c ****             }
 200:Core/Src/main.c ****             else if (twist > T_TOP_BOUND) {
 201:Core/Src/main.c ****                 msg_tx.deserial.twist = (twist - T_TOP_BOUND) * 1000 / T_BOT_BOUND;
 202:Core/Src/main.c ****             }
 203:Core/Src/main.c ****             else {
ARM GAS  /run/user/1000/ccey5E38.s 			page 5


 204:Core/Src/main.c ****                 msg_tx.deserial.twist = 0;
 205:Core/Src/main.c ****             }
 206:Core/Src/main.c **** 
 207:Core/Src/main.c ****             msg_tx.deserial.button = HAL_GPIO_ReadPin(JOY_BUTTON_GPIO_Port, JOY_BUTTON_Pin);
 208:Core/Src/main.c **** 
 209:Core/Src/main.c ****             timestamp = HAL_GetTick();
 210:Core/Src/main.c ****         }
 211:Core/Src/main.c **** 
 212:Core/Src/main.c ****         nRF24_WritePayload((uint8_t*) msg_tx.serial, sizeof(msg_tx.serial)); // pass data pointer
 213:Core/Src/main.c ****         nRF24_CE_H; // activate coms to nrf, starts tx
 214:Core/Src/main.c ****         while (1) {
 215:Core/Src/main.c ****             status = nRF24_GetStatus();
 216:Core/Src/main.c ****             if (status & (nRF24_FLAG_TX_DS | nRF24_FLAG_MAX_RT)) {
 217:Core/Src/main.c ****                 break;
 218:Core/Src/main.c ****             }
 219:Core/Src/main.c ****         }
 220:Core/Src/main.c ****         nRF24_CE_L; // deactivate coms to nrf
 221:Core/Src/main.c ****         nRF24_ClearIRQFlags();
 222:Core/Src/main.c ****     /* USER CODE END WHILE */
 223:Core/Src/main.c **** 
 224:Core/Src/main.c ****     /* USER CODE BEGIN 3 */
 225:Core/Src/main.c ****     }
 226:Core/Src/main.c ****   /* USER CODE END 3 */
 227:Core/Src/main.c **** }
 228:Core/Src/main.c **** 
 229:Core/Src/main.c **** /**
 230:Core/Src/main.c ****   * @brief System Clock Configuration
 231:Core/Src/main.c ****   * @retval None
 232:Core/Src/main.c ****   */
 233:Core/Src/main.c **** void SystemClock_Config(void)
 234:Core/Src/main.c **** {
 235:Core/Src/main.c ****   RCC_OscInitTypeDef RCC_OscInitStruct = {0};
 236:Core/Src/main.c ****   RCC_ClkInitTypeDef RCC_ClkInitStruct = {0};
 237:Core/Src/main.c ****   RCC_PeriphCLKInitTypeDef PeriphClkInit = {0};
 238:Core/Src/main.c **** 
 239:Core/Src/main.c ****   /** Initializes the RCC Oscillators according to the specified parameters
 240:Core/Src/main.c ****   * in the RCC_OscInitTypeDef structure.
 241:Core/Src/main.c ****   */
 242:Core/Src/main.c ****   RCC_OscInitStruct.OscillatorType = RCC_OSCILLATORTYPE_HSE;
 243:Core/Src/main.c ****   RCC_OscInitStruct.HSEState = RCC_HSE_ON;
 244:Core/Src/main.c ****   RCC_OscInitStruct.HSEPredivValue = RCC_HSE_PREDIV_DIV1;
 245:Core/Src/main.c ****   RCC_OscInitStruct.HSIState = RCC_HSI_ON;
 246:Core/Src/main.c ****   RCC_OscInitStruct.PLL.PLLState = RCC_PLL_ON;
 247:Core/Src/main.c ****   RCC_OscInitStruct.PLL.PLLSource = RCC_PLLSOURCE_HSE;
 248:Core/Src/main.c ****   RCC_OscInitStruct.PLL.PLLMUL = RCC_PLL_MUL6;
 249:Core/Src/main.c ****   if (HAL_RCC_OscConfig(&RCC_OscInitStruct) != HAL_OK)
 250:Core/Src/main.c ****   {
 251:Core/Src/main.c ****     Error_Handler();
 252:Core/Src/main.c ****   }
 253:Core/Src/main.c **** 
 254:Core/Src/main.c ****   /** Initializes the CPU, AHB and APB buses clocks
 255:Core/Src/main.c ****   */
 256:Core/Src/main.c ****   RCC_ClkInitStruct.ClockType = RCC_CLOCKTYPE_HCLK|RCC_CLOCKTYPE_SYSCLK
 257:Core/Src/main.c ****                               |RCC_CLOCKTYPE_PCLK1|RCC_CLOCKTYPE_PCLK2;
 258:Core/Src/main.c ****   RCC_ClkInitStruct.SYSCLKSource = RCC_SYSCLKSOURCE_PLLCLK;
 259:Core/Src/main.c ****   RCC_ClkInitStruct.AHBCLKDivider = RCC_SYSCLK_DIV4;
 260:Core/Src/main.c ****   RCC_ClkInitStruct.APB1CLKDivider = RCC_HCLK_DIV1;
ARM GAS  /run/user/1000/ccey5E38.s 			page 6


 261:Core/Src/main.c ****   RCC_ClkInitStruct.APB2CLKDivider = RCC_HCLK_DIV1;
 262:Core/Src/main.c **** 
 263:Core/Src/main.c ****   if (HAL_RCC_ClockConfig(&RCC_ClkInitStruct, FLASH_LATENCY_1) != HAL_OK)
 264:Core/Src/main.c ****   {
 265:Core/Src/main.c ****     Error_Handler();
 266:Core/Src/main.c ****   }
 267:Core/Src/main.c ****   PeriphClkInit.PeriphClockSelection = RCC_PERIPHCLK_ADC|RCC_PERIPHCLK_USB;
 268:Core/Src/main.c ****   PeriphClkInit.AdcClockSelection = RCC_ADCPCLK2_DIV2;
 269:Core/Src/main.c ****   PeriphClkInit.UsbClockSelection = RCC_USBCLKSOURCE_PLL;
 270:Core/Src/main.c ****   if (HAL_RCCEx_PeriphCLKConfig(&PeriphClkInit) != HAL_OK)
 271:Core/Src/main.c ****   {
 272:Core/Src/main.c ****     Error_Handler();
 273:Core/Src/main.c ****   }
 274:Core/Src/main.c **** }
 275:Core/Src/main.c **** 
 276:Core/Src/main.c **** /* USER CODE BEGIN 4 */
 277:Core/Src/main.c **** 
 278:Core/Src/main.c **** /* USER CODE END 4 */
 279:Core/Src/main.c **** 
 280:Core/Src/main.c **** /**
 281:Core/Src/main.c ****   * @brief  This function is executed in case of error occurrence.
 282:Core/Src/main.c ****   * @retval None
 283:Core/Src/main.c ****   */
 284:Core/Src/main.c **** void Error_Handler(void)
 285:Core/Src/main.c **** {
  27              		.loc 1 285 1 view -0
  28              		.cfi_startproc
  29              		@ Volatile: function does not return.
  30              		@ args = 0, pretend = 0, frame = 0
  31              		@ frame_needed = 0, uses_anonymous_args = 0
  32              		@ link register save eliminated.
 286:Core/Src/main.c ****   /* USER CODE BEGIN Error_Handler_Debug */
 287:Core/Src/main.c ****     /* User can add his own implementation to report the HAL error return state */
 288:Core/Src/main.c ****     __disable_irq();
  33              		.loc 1 288 5 view .LVU1
  34              	.LBB9:
  35              	.LBI9:
  36              		.file 2 "Drivers/CMSIS/Include/cmsis_gcc.h"
   1:Drivers/CMSIS/Include/cmsis_gcc.h **** /**************************************************************************//**
   2:Drivers/CMSIS/Include/cmsis_gcc.h ****  * @file     cmsis_gcc.h
   3:Drivers/CMSIS/Include/cmsis_gcc.h ****  * @brief    CMSIS compiler GCC header file
   4:Drivers/CMSIS/Include/cmsis_gcc.h ****  * @version  V5.0.4
   5:Drivers/CMSIS/Include/cmsis_gcc.h ****  * @date     09. April 2018
   6:Drivers/CMSIS/Include/cmsis_gcc.h ****  ******************************************************************************/
   7:Drivers/CMSIS/Include/cmsis_gcc.h **** /*
   8:Drivers/CMSIS/Include/cmsis_gcc.h ****  * Copyright (c) 2009-2018 Arm Limited. All rights reserved.
   9:Drivers/CMSIS/Include/cmsis_gcc.h ****  *
  10:Drivers/CMSIS/Include/cmsis_gcc.h ****  * SPDX-License-Identifier: Apache-2.0
  11:Drivers/CMSIS/Include/cmsis_gcc.h ****  *
  12:Drivers/CMSIS/Include/cmsis_gcc.h ****  * Licensed under the Apache License, Version 2.0 (the License); you may
  13:Drivers/CMSIS/Include/cmsis_gcc.h ****  * not use this file except in compliance with the License.
  14:Drivers/CMSIS/Include/cmsis_gcc.h ****  * You may obtain a copy of the License at
  15:Drivers/CMSIS/Include/cmsis_gcc.h ****  *
  16:Drivers/CMSIS/Include/cmsis_gcc.h ****  * www.apache.org/licenses/LICENSE-2.0
  17:Drivers/CMSIS/Include/cmsis_gcc.h ****  *
  18:Drivers/CMSIS/Include/cmsis_gcc.h ****  * Unless required by applicable law or agreed to in writing, software
  19:Drivers/CMSIS/Include/cmsis_gcc.h ****  * distributed under the License is distributed on an AS IS BASIS, WITHOUT
ARM GAS  /run/user/1000/ccey5E38.s 			page 7


  20:Drivers/CMSIS/Include/cmsis_gcc.h ****  * WARRANTIES OR CONDITIONS OF ANY KIND, either express or implied.
  21:Drivers/CMSIS/Include/cmsis_gcc.h ****  * See the License for the specific language governing permissions and
  22:Drivers/CMSIS/Include/cmsis_gcc.h ****  * limitations under the License.
  23:Drivers/CMSIS/Include/cmsis_gcc.h ****  */
  24:Drivers/CMSIS/Include/cmsis_gcc.h **** 
  25:Drivers/CMSIS/Include/cmsis_gcc.h **** #ifndef __CMSIS_GCC_H
  26:Drivers/CMSIS/Include/cmsis_gcc.h **** #define __CMSIS_GCC_H
  27:Drivers/CMSIS/Include/cmsis_gcc.h **** 
  28:Drivers/CMSIS/Include/cmsis_gcc.h **** /* ignore some GCC warnings */
  29:Drivers/CMSIS/Include/cmsis_gcc.h **** #pragma GCC diagnostic push
  30:Drivers/CMSIS/Include/cmsis_gcc.h **** #pragma GCC diagnostic ignored "-Wsign-conversion"
  31:Drivers/CMSIS/Include/cmsis_gcc.h **** #pragma GCC diagnostic ignored "-Wconversion"
  32:Drivers/CMSIS/Include/cmsis_gcc.h **** #pragma GCC diagnostic ignored "-Wunused-parameter"
  33:Drivers/CMSIS/Include/cmsis_gcc.h **** 
  34:Drivers/CMSIS/Include/cmsis_gcc.h **** /* Fallback for __has_builtin */
  35:Drivers/CMSIS/Include/cmsis_gcc.h **** #ifndef __has_builtin
  36:Drivers/CMSIS/Include/cmsis_gcc.h ****   #define __has_builtin(x) (0)
  37:Drivers/CMSIS/Include/cmsis_gcc.h **** #endif
  38:Drivers/CMSIS/Include/cmsis_gcc.h **** 
  39:Drivers/CMSIS/Include/cmsis_gcc.h **** /* CMSIS compiler specific defines */
  40:Drivers/CMSIS/Include/cmsis_gcc.h **** #ifndef   __ASM
  41:Drivers/CMSIS/Include/cmsis_gcc.h ****   #define __ASM                                  __asm
  42:Drivers/CMSIS/Include/cmsis_gcc.h **** #endif
  43:Drivers/CMSIS/Include/cmsis_gcc.h **** #ifndef   __INLINE
  44:Drivers/CMSIS/Include/cmsis_gcc.h ****   #define __INLINE                               inline
  45:Drivers/CMSIS/Include/cmsis_gcc.h **** #endif
  46:Drivers/CMSIS/Include/cmsis_gcc.h **** #ifndef   __STATIC_INLINE
  47:Drivers/CMSIS/Include/cmsis_gcc.h ****   #define __STATIC_INLINE                        static inline
  48:Drivers/CMSIS/Include/cmsis_gcc.h **** #endif
  49:Drivers/CMSIS/Include/cmsis_gcc.h **** #ifndef   __STATIC_FORCEINLINE                 
  50:Drivers/CMSIS/Include/cmsis_gcc.h ****   #define __STATIC_FORCEINLINE                   __attribute__((always_inline)) static inline
  51:Drivers/CMSIS/Include/cmsis_gcc.h **** #endif                                           
  52:Drivers/CMSIS/Include/cmsis_gcc.h **** #ifndef   __NO_RETURN
  53:Drivers/CMSIS/Include/cmsis_gcc.h ****   #define __NO_RETURN                            __attribute__((__noreturn__))
  54:Drivers/CMSIS/Include/cmsis_gcc.h **** #endif
  55:Drivers/CMSIS/Include/cmsis_gcc.h **** #ifndef   __USED
  56:Drivers/CMSIS/Include/cmsis_gcc.h ****   #define __USED                                 __attribute__((used))
  57:Drivers/CMSIS/Include/cmsis_gcc.h **** #endif
  58:Drivers/CMSIS/Include/cmsis_gcc.h **** #ifndef   __WEAK
  59:Drivers/CMSIS/Include/cmsis_gcc.h ****   #define __WEAK                                 __attribute__((weak))
  60:Drivers/CMSIS/Include/cmsis_gcc.h **** #endif
  61:Drivers/CMSIS/Include/cmsis_gcc.h **** #ifndef   __PACKED
  62:Drivers/CMSIS/Include/cmsis_gcc.h ****   #define __PACKED                               __attribute__((packed, aligned(1)))
  63:Drivers/CMSIS/Include/cmsis_gcc.h **** #endif
  64:Drivers/CMSIS/Include/cmsis_gcc.h **** #ifndef   __PACKED_STRUCT
  65:Drivers/CMSIS/Include/cmsis_gcc.h ****   #define __PACKED_STRUCT                        struct __attribute__((packed, aligned(1)))
  66:Drivers/CMSIS/Include/cmsis_gcc.h **** #endif
  67:Drivers/CMSIS/Include/cmsis_gcc.h **** #ifndef   __PACKED_UNION
  68:Drivers/CMSIS/Include/cmsis_gcc.h ****   #define __PACKED_UNION                         union __attribute__((packed, aligned(1)))
  69:Drivers/CMSIS/Include/cmsis_gcc.h **** #endif
  70:Drivers/CMSIS/Include/cmsis_gcc.h **** #ifndef   __UNALIGNED_UINT32        /* deprecated */
  71:Drivers/CMSIS/Include/cmsis_gcc.h ****   #pragma GCC diagnostic push
  72:Drivers/CMSIS/Include/cmsis_gcc.h ****   #pragma GCC diagnostic ignored "-Wpacked"
  73:Drivers/CMSIS/Include/cmsis_gcc.h ****   #pragma GCC diagnostic ignored "-Wattributes"
  74:Drivers/CMSIS/Include/cmsis_gcc.h ****   struct __attribute__((packed)) T_UINT32 { uint32_t v; };
  75:Drivers/CMSIS/Include/cmsis_gcc.h ****   #pragma GCC diagnostic pop
  76:Drivers/CMSIS/Include/cmsis_gcc.h ****   #define __UNALIGNED_UINT32(x)                  (((struct T_UINT32 *)(x))->v)
ARM GAS  /run/user/1000/ccey5E38.s 			page 8


  77:Drivers/CMSIS/Include/cmsis_gcc.h **** #endif
  78:Drivers/CMSIS/Include/cmsis_gcc.h **** #ifndef   __UNALIGNED_UINT16_WRITE
  79:Drivers/CMSIS/Include/cmsis_gcc.h ****   #pragma GCC diagnostic push
  80:Drivers/CMSIS/Include/cmsis_gcc.h ****   #pragma GCC diagnostic ignored "-Wpacked"
  81:Drivers/CMSIS/Include/cmsis_gcc.h ****   #pragma GCC diagnostic ignored "-Wattributes"
  82:Drivers/CMSIS/Include/cmsis_gcc.h ****   __PACKED_STRUCT T_UINT16_WRITE { uint16_t v; };
  83:Drivers/CMSIS/Include/cmsis_gcc.h ****   #pragma GCC diagnostic pop
  84:Drivers/CMSIS/Include/cmsis_gcc.h ****   #define __UNALIGNED_UINT16_WRITE(addr, val)    (void)((((struct T_UINT16_WRITE *)(void *)(addr))-
  85:Drivers/CMSIS/Include/cmsis_gcc.h **** #endif
  86:Drivers/CMSIS/Include/cmsis_gcc.h **** #ifndef   __UNALIGNED_UINT16_READ
  87:Drivers/CMSIS/Include/cmsis_gcc.h ****   #pragma GCC diagnostic push
  88:Drivers/CMSIS/Include/cmsis_gcc.h ****   #pragma GCC diagnostic ignored "-Wpacked"
  89:Drivers/CMSIS/Include/cmsis_gcc.h ****   #pragma GCC diagnostic ignored "-Wattributes"
  90:Drivers/CMSIS/Include/cmsis_gcc.h ****   __PACKED_STRUCT T_UINT16_READ { uint16_t v; };
  91:Drivers/CMSIS/Include/cmsis_gcc.h ****   #pragma GCC diagnostic pop
  92:Drivers/CMSIS/Include/cmsis_gcc.h ****   #define __UNALIGNED_UINT16_READ(addr)          (((const struct T_UINT16_READ *)(const void *)(add
  93:Drivers/CMSIS/Include/cmsis_gcc.h **** #endif
  94:Drivers/CMSIS/Include/cmsis_gcc.h **** #ifndef   __UNALIGNED_UINT32_WRITE
  95:Drivers/CMSIS/Include/cmsis_gcc.h ****   #pragma GCC diagnostic push
  96:Drivers/CMSIS/Include/cmsis_gcc.h ****   #pragma GCC diagnostic ignored "-Wpacked"
  97:Drivers/CMSIS/Include/cmsis_gcc.h ****   #pragma GCC diagnostic ignored "-Wattributes"
  98:Drivers/CMSIS/Include/cmsis_gcc.h ****   __PACKED_STRUCT T_UINT32_WRITE { uint32_t v; };
  99:Drivers/CMSIS/Include/cmsis_gcc.h ****   #pragma GCC diagnostic pop
 100:Drivers/CMSIS/Include/cmsis_gcc.h ****   #define __UNALIGNED_UINT32_WRITE(addr, val)    (void)((((struct T_UINT32_WRITE *)(void *)(addr))-
 101:Drivers/CMSIS/Include/cmsis_gcc.h **** #endif
 102:Drivers/CMSIS/Include/cmsis_gcc.h **** #ifndef   __UNALIGNED_UINT32_READ
 103:Drivers/CMSIS/Include/cmsis_gcc.h ****   #pragma GCC diagnostic push
 104:Drivers/CMSIS/Include/cmsis_gcc.h ****   #pragma GCC diagnostic ignored "-Wpacked"
 105:Drivers/CMSIS/Include/cmsis_gcc.h ****   #pragma GCC diagnostic ignored "-Wattributes"
 106:Drivers/CMSIS/Include/cmsis_gcc.h ****   __PACKED_STRUCT T_UINT32_READ { uint32_t v; };
 107:Drivers/CMSIS/Include/cmsis_gcc.h ****   #pragma GCC diagnostic pop
 108:Drivers/CMSIS/Include/cmsis_gcc.h ****   #define __UNALIGNED_UINT32_READ(addr)          (((const struct T_UINT32_READ *)(const void *)(add
 109:Drivers/CMSIS/Include/cmsis_gcc.h **** #endif
 110:Drivers/CMSIS/Include/cmsis_gcc.h **** #ifndef   __ALIGNED
 111:Drivers/CMSIS/Include/cmsis_gcc.h ****   #define __ALIGNED(x)                           __attribute__((aligned(x)))
 112:Drivers/CMSIS/Include/cmsis_gcc.h **** #endif
 113:Drivers/CMSIS/Include/cmsis_gcc.h **** #ifndef   __RESTRICT
 114:Drivers/CMSIS/Include/cmsis_gcc.h ****   #define __RESTRICT                             __restrict
 115:Drivers/CMSIS/Include/cmsis_gcc.h **** #endif
 116:Drivers/CMSIS/Include/cmsis_gcc.h **** 
 117:Drivers/CMSIS/Include/cmsis_gcc.h **** 
 118:Drivers/CMSIS/Include/cmsis_gcc.h **** /* ###########################  Core Function Access  ########################### */
 119:Drivers/CMSIS/Include/cmsis_gcc.h **** /** \ingroup  CMSIS_Core_FunctionInterface
 120:Drivers/CMSIS/Include/cmsis_gcc.h ****     \defgroup CMSIS_Core_RegAccFunctions CMSIS Core Register Access Functions
 121:Drivers/CMSIS/Include/cmsis_gcc.h ****   @{
 122:Drivers/CMSIS/Include/cmsis_gcc.h ****  */
 123:Drivers/CMSIS/Include/cmsis_gcc.h **** 
 124:Drivers/CMSIS/Include/cmsis_gcc.h **** /**
 125:Drivers/CMSIS/Include/cmsis_gcc.h ****   \brief   Enable IRQ Interrupts
 126:Drivers/CMSIS/Include/cmsis_gcc.h ****   \details Enables IRQ interrupts by clearing the I-bit in the CPSR.
 127:Drivers/CMSIS/Include/cmsis_gcc.h ****            Can only be executed in Privileged modes.
 128:Drivers/CMSIS/Include/cmsis_gcc.h ****  */
 129:Drivers/CMSIS/Include/cmsis_gcc.h **** __STATIC_FORCEINLINE void __enable_irq(void)
 130:Drivers/CMSIS/Include/cmsis_gcc.h **** {
 131:Drivers/CMSIS/Include/cmsis_gcc.h ****   __ASM volatile ("cpsie i" : : : "memory");
 132:Drivers/CMSIS/Include/cmsis_gcc.h **** }
 133:Drivers/CMSIS/Include/cmsis_gcc.h **** 
ARM GAS  /run/user/1000/ccey5E38.s 			page 9


 134:Drivers/CMSIS/Include/cmsis_gcc.h **** 
 135:Drivers/CMSIS/Include/cmsis_gcc.h **** /**
 136:Drivers/CMSIS/Include/cmsis_gcc.h ****   \brief   Disable IRQ Interrupts
 137:Drivers/CMSIS/Include/cmsis_gcc.h ****   \details Disables IRQ interrupts by setting the I-bit in the CPSR.
 138:Drivers/CMSIS/Include/cmsis_gcc.h ****            Can only be executed in Privileged modes.
 139:Drivers/CMSIS/Include/cmsis_gcc.h ****  */
 140:Drivers/CMSIS/Include/cmsis_gcc.h **** __STATIC_FORCEINLINE void __disable_irq(void)
  37              		.loc 2 140 27 view .LVU2
  38              	.LBB10:
 141:Drivers/CMSIS/Include/cmsis_gcc.h **** {
 142:Drivers/CMSIS/Include/cmsis_gcc.h ****   __ASM volatile ("cpsid i" : : : "memory");
  39              		.loc 2 142 3 view .LVU3
  40              		.syntax unified
  41              	@ 142 "Drivers/CMSIS/Include/cmsis_gcc.h" 1
  42 0000 72B6     		cpsid i
  43              	@ 0 "" 2
  44              		.thumb
  45              		.syntax unified
  46              	.L2:
  47              	.LBE10:
  48              	.LBE9:
 289:Core/Src/main.c ****     while (1)
  49              		.loc 1 289 5 discriminator 1 view .LVU4
 290:Core/Src/main.c ****     {
 291:Core/Src/main.c ****     }
  50              		.loc 1 291 5 discriminator 1 view .LVU5
 289:Core/Src/main.c ****     while (1)
  51              		.loc 1 289 11 discriminator 1 view .LVU6
  52 0002 FEE7     		b	.L2
  53              		.cfi_endproc
  54              	.LFE129:
  56              		.section	.text.SystemClock_Config,"ax",%progbits
  57              		.align	1
  58              		.global	SystemClock_Config
  59              		.syntax unified
  60              		.thumb
  61              		.thumb_func
  63              	SystemClock_Config:
  64              	.LFB128:
 234:Core/Src/main.c ****   RCC_OscInitTypeDef RCC_OscInitStruct = {0};
  65              		.loc 1 234 1 view -0
  66              		.cfi_startproc
  67              		@ args = 0, pretend = 0, frame = 80
  68              		@ frame_needed = 0, uses_anonymous_args = 0
  69 0000 00B5     		push	{lr}
  70              	.LCFI0:
  71              		.cfi_def_cfa_offset 4
  72              		.cfi_offset 14, -4
  73 0002 95B0     		sub	sp, sp, #84
  74              	.LCFI1:
  75              		.cfi_def_cfa_offset 88
 235:Core/Src/main.c ****   RCC_ClkInitTypeDef RCC_ClkInitStruct = {0};
  76              		.loc 1 235 3 view .LVU8
 235:Core/Src/main.c ****   RCC_ClkInitTypeDef RCC_ClkInitStruct = {0};
  77              		.loc 1 235 22 is_stmt 0 view .LVU9
  78 0004 2822     		movs	r2, #40
  79 0006 0021     		movs	r1, #0
ARM GAS  /run/user/1000/ccey5E38.s 			page 10


  80 0008 0DEB0200 		add	r0, sp, r2
  81 000c FFF7FEFF 		bl	memset
  82              	.LVL0:
 236:Core/Src/main.c ****   RCC_PeriphCLKInitTypeDef PeriphClkInit = {0};
  83              		.loc 1 236 3 is_stmt 1 view .LVU10
 236:Core/Src/main.c ****   RCC_PeriphCLKInitTypeDef PeriphClkInit = {0};
  84              		.loc 1 236 22 is_stmt 0 view .LVU11
  85 0010 0023     		movs	r3, #0
  86 0012 0593     		str	r3, [sp, #20]
  87 0014 0693     		str	r3, [sp, #24]
  88 0016 0793     		str	r3, [sp, #28]
  89 0018 0893     		str	r3, [sp, #32]
  90 001a 0993     		str	r3, [sp, #36]
 237:Core/Src/main.c **** 
  91              		.loc 1 237 3 is_stmt 1 view .LVU12
 237:Core/Src/main.c **** 
  92              		.loc 1 237 28 is_stmt 0 view .LVU13
  93 001c 0193     		str	r3, [sp, #4]
  94 001e 0293     		str	r3, [sp, #8]
  95 0020 0393     		str	r3, [sp, #12]
  96 0022 0493     		str	r3, [sp, #16]
 242:Core/Src/main.c ****   RCC_OscInitStruct.HSEState = RCC_HSE_ON;
  97              		.loc 1 242 3 is_stmt 1 view .LVU14
 242:Core/Src/main.c ****   RCC_OscInitStruct.HSEState = RCC_HSE_ON;
  98              		.loc 1 242 36 is_stmt 0 view .LVU15
  99 0024 0122     		movs	r2, #1
 100 0026 0A92     		str	r2, [sp, #40]
 243:Core/Src/main.c ****   RCC_OscInitStruct.HSEPredivValue = RCC_HSE_PREDIV_DIV1;
 101              		.loc 1 243 3 is_stmt 1 view .LVU16
 243:Core/Src/main.c ****   RCC_OscInitStruct.HSEPredivValue = RCC_HSE_PREDIV_DIV1;
 102              		.loc 1 243 30 is_stmt 0 view .LVU17
 103 0028 4FF48033 		mov	r3, #65536
 104 002c 0B93     		str	r3, [sp, #44]
 244:Core/Src/main.c ****   RCC_OscInitStruct.HSIState = RCC_HSI_ON;
 105              		.loc 1 244 3 is_stmt 1 view .LVU18
 245:Core/Src/main.c ****   RCC_OscInitStruct.PLL.PLLState = RCC_PLL_ON;
 106              		.loc 1 245 3 view .LVU19
 245:Core/Src/main.c ****   RCC_OscInitStruct.PLL.PLLState = RCC_PLL_ON;
 107              		.loc 1 245 30 is_stmt 0 view .LVU20
 108 002e 0E92     		str	r2, [sp, #56]
 246:Core/Src/main.c ****   RCC_OscInitStruct.PLL.PLLSource = RCC_PLLSOURCE_HSE;
 109              		.loc 1 246 3 is_stmt 1 view .LVU21
 246:Core/Src/main.c ****   RCC_OscInitStruct.PLL.PLLSource = RCC_PLLSOURCE_HSE;
 110              		.loc 1 246 34 is_stmt 0 view .LVU22
 111 0030 0222     		movs	r2, #2
 112 0032 1192     		str	r2, [sp, #68]
 247:Core/Src/main.c ****   RCC_OscInitStruct.PLL.PLLMUL = RCC_PLL_MUL6;
 113              		.loc 1 247 3 is_stmt 1 view .LVU23
 247:Core/Src/main.c ****   RCC_OscInitStruct.PLL.PLLMUL = RCC_PLL_MUL6;
 114              		.loc 1 247 35 is_stmt 0 view .LVU24
 115 0034 1293     		str	r3, [sp, #72]
 248:Core/Src/main.c ****   if (HAL_RCC_OscConfig(&RCC_OscInitStruct) != HAL_OK)
 116              		.loc 1 248 3 is_stmt 1 view .LVU25
 248:Core/Src/main.c ****   if (HAL_RCC_OscConfig(&RCC_OscInitStruct) != HAL_OK)
 117              		.loc 1 248 32 is_stmt 0 view .LVU26
 118 0036 4FF48013 		mov	r3, #1048576
 119 003a 1393     		str	r3, [sp, #76]
ARM GAS  /run/user/1000/ccey5E38.s 			page 11


 249:Core/Src/main.c ****   {
 120              		.loc 1 249 3 is_stmt 1 view .LVU27
 249:Core/Src/main.c ****   {
 121              		.loc 1 249 7 is_stmt 0 view .LVU28
 122 003c 0AA8     		add	r0, sp, #40
 123 003e FFF7FEFF 		bl	HAL_RCC_OscConfig
 124              	.LVL1:
 249:Core/Src/main.c ****   {
 125              		.loc 1 249 6 view .LVU29
 126 0042 D8B9     		cbnz	r0, .L8
 256:Core/Src/main.c ****                               |RCC_CLOCKTYPE_PCLK1|RCC_CLOCKTYPE_PCLK2;
 127              		.loc 1 256 3 is_stmt 1 view .LVU30
 256:Core/Src/main.c ****                               |RCC_CLOCKTYPE_PCLK1|RCC_CLOCKTYPE_PCLK2;
 128              		.loc 1 256 31 is_stmt 0 view .LVU31
 129 0044 0F23     		movs	r3, #15
 130 0046 0593     		str	r3, [sp, #20]
 258:Core/Src/main.c ****   RCC_ClkInitStruct.AHBCLKDivider = RCC_SYSCLK_DIV4;
 131              		.loc 1 258 3 is_stmt 1 view .LVU32
 258:Core/Src/main.c ****   RCC_ClkInitStruct.AHBCLKDivider = RCC_SYSCLK_DIV4;
 132              		.loc 1 258 34 is_stmt 0 view .LVU33
 133 0048 0223     		movs	r3, #2
 134 004a 0693     		str	r3, [sp, #24]
 259:Core/Src/main.c ****   RCC_ClkInitStruct.APB1CLKDivider = RCC_HCLK_DIV1;
 135              		.loc 1 259 3 is_stmt 1 view .LVU34
 259:Core/Src/main.c ****   RCC_ClkInitStruct.APB1CLKDivider = RCC_HCLK_DIV1;
 136              		.loc 1 259 35 is_stmt 0 view .LVU35
 137 004c 9023     		movs	r3, #144
 138 004e 0793     		str	r3, [sp, #28]
 260:Core/Src/main.c ****   RCC_ClkInitStruct.APB2CLKDivider = RCC_HCLK_DIV1;
 139              		.loc 1 260 3 is_stmt 1 view .LVU36
 260:Core/Src/main.c ****   RCC_ClkInitStruct.APB2CLKDivider = RCC_HCLK_DIV1;
 140              		.loc 1 260 36 is_stmt 0 view .LVU37
 141 0050 0023     		movs	r3, #0
 142 0052 0893     		str	r3, [sp, #32]
 261:Core/Src/main.c **** 
 143              		.loc 1 261 3 is_stmt 1 view .LVU38
 261:Core/Src/main.c **** 
 144              		.loc 1 261 36 is_stmt 0 view .LVU39
 145 0054 0993     		str	r3, [sp, #36]
 263:Core/Src/main.c ****   {
 146              		.loc 1 263 3 is_stmt 1 view .LVU40
 263:Core/Src/main.c ****   {
 147              		.loc 1 263 7 is_stmt 0 view .LVU41
 148 0056 0121     		movs	r1, #1
 149 0058 05A8     		add	r0, sp, #20
 150 005a FFF7FEFF 		bl	HAL_RCC_ClockConfig
 151              	.LVL2:
 263:Core/Src/main.c ****   {
 152              		.loc 1 263 6 view .LVU42
 153 005e 78B9     		cbnz	r0, .L9
 267:Core/Src/main.c ****   PeriphClkInit.AdcClockSelection = RCC_ADCPCLK2_DIV2;
 154              		.loc 1 267 3 is_stmt 1 view .LVU43
 267:Core/Src/main.c ****   PeriphClkInit.AdcClockSelection = RCC_ADCPCLK2_DIV2;
 155              		.loc 1 267 38 is_stmt 0 view .LVU44
 156 0060 1223     		movs	r3, #18
 157 0062 0193     		str	r3, [sp, #4]
 268:Core/Src/main.c ****   PeriphClkInit.UsbClockSelection = RCC_USBCLKSOURCE_PLL;
ARM GAS  /run/user/1000/ccey5E38.s 			page 12


 158              		.loc 1 268 3 is_stmt 1 view .LVU45
 268:Core/Src/main.c ****   PeriphClkInit.UsbClockSelection = RCC_USBCLKSOURCE_PLL;
 159              		.loc 1 268 35 is_stmt 0 view .LVU46
 160 0064 0023     		movs	r3, #0
 161 0066 0393     		str	r3, [sp, #12]
 269:Core/Src/main.c ****   if (HAL_RCCEx_PeriphCLKConfig(&PeriphClkInit) != HAL_OK)
 162              		.loc 1 269 3 is_stmt 1 view .LVU47
 269:Core/Src/main.c ****   if (HAL_RCCEx_PeriphCLKConfig(&PeriphClkInit) != HAL_OK)
 163              		.loc 1 269 35 is_stmt 0 view .LVU48
 164 0068 4FF48003 		mov	r3, #4194304
 165 006c 0493     		str	r3, [sp, #16]
 270:Core/Src/main.c ****   {
 166              		.loc 1 270 3 is_stmt 1 view .LVU49
 270:Core/Src/main.c ****   {
 167              		.loc 1 270 7 is_stmt 0 view .LVU50
 168 006e 01A8     		add	r0, sp, #4
 169 0070 FFF7FEFF 		bl	HAL_RCCEx_PeriphCLKConfig
 170              	.LVL3:
 270:Core/Src/main.c ****   {
 171              		.loc 1 270 6 view .LVU51
 172 0074 30B9     		cbnz	r0, .L10
 274:Core/Src/main.c **** 
 173              		.loc 1 274 1 view .LVU52
 174 0076 15B0     		add	sp, sp, #84
 175              	.LCFI2:
 176              		.cfi_remember_state
 177              		.cfi_def_cfa_offset 4
 178              		@ sp needed
 179 0078 5DF804FB 		ldr	pc, [sp], #4
 180              	.L8:
 181              	.LCFI3:
 182              		.cfi_restore_state
 251:Core/Src/main.c ****   }
 183              		.loc 1 251 5 is_stmt 1 view .LVU53
 184 007c FFF7FEFF 		bl	Error_Handler
 185              	.LVL4:
 186              	.L9:
 265:Core/Src/main.c ****   }
 187              		.loc 1 265 5 view .LVU54
 188 0080 FFF7FEFF 		bl	Error_Handler
 189              	.LVL5:
 190              	.L10:
 272:Core/Src/main.c ****   }
 191              		.loc 1 272 5 view .LVU55
 192 0084 FFF7FEFF 		bl	Error_Handler
 193              	.LVL6:
 194              		.cfi_endproc
 195              	.LFE128:
 197              		.section	.text.main,"ax",%progbits
 198              		.align	1
 199              		.global	main
 200              		.syntax unified
 201              		.thumb
 202              		.thumb_func
 204              	main:
 205              	.LFB127:
  95:Core/Src/main.c ****   /* USER CODE BEGIN 1 */
ARM GAS  /run/user/1000/ccey5E38.s 			page 13


 206              		.loc 1 95 1 view -0
 207              		.cfi_startproc
 208              		@ args = 0, pretend = 0, frame = 24
 209              		@ frame_needed = 0, uses_anonymous_args = 0
 210 0000 30B5     		push	{r4, r5, lr}
 211              	.LCFI4:
 212              		.cfi_def_cfa_offset 12
 213              		.cfi_offset 4, -12
 214              		.cfi_offset 5, -8
 215              		.cfi_offset 14, -4
 216 0002 87B0     		sub	sp, sp, #28
 217              	.LCFI5:
 218              		.cfi_def_cfa_offset 40
  97:Core/Src/main.c ****     msg_tx.deserial.button = 0x00;
 219              		.loc 1 97 5 view .LVU57
  97:Core/Src/main.c ****     msg_tx.deserial.button = 0x00;
 220              		.loc 1 97 27 is_stmt 0 view .LVU58
 221 0004 914B     		ldr	r3, .L35
 222 0006 0122     		movs	r2, #1
 223 0008 1A70     		strb	r2, [r3]
  98:Core/Src/main.c ****     msg_tx.deserial.x_axis = 0x0000;
 224              		.loc 1 98 5 is_stmt 1 view .LVU59
  98:Core/Src/main.c ****     msg_tx.deserial.x_axis = 0x0000;
 225              		.loc 1 98 28 is_stmt 0 view .LVU60
 226 000a 0022     		movs	r2, #0
 227 000c 5A70     		strb	r2, [r3, #1]
  99:Core/Src/main.c ****     msg_tx.deserial.y_axis = 0x0000;
 228              		.loc 1 99 5 is_stmt 1 view .LVU61
  99:Core/Src/main.c ****     msg_tx.deserial.y_axis = 0x0000;
 229              		.loc 1 99 28 is_stmt 0 view .LVU62
 230 000e 5A80     		strh	r2, [r3, #2]	@ movhi
 100:Core/Src/main.c ****     msg_tx.deserial.twist = 0x0000;
 231              		.loc 1 100 5 is_stmt 1 view .LVU63
 100:Core/Src/main.c ****     msg_tx.deserial.twist = 0x0000;
 232              		.loc 1 100 28 is_stmt 0 view .LVU64
 233 0010 9A80     		strh	r2, [r3, #4]	@ movhi
 101:Core/Src/main.c ****   /* USER CODE END 1 */
 234              		.loc 1 101 5 is_stmt 1 view .LVU65
 101:Core/Src/main.c ****   /* USER CODE END 1 */
 235              		.loc 1 101 27 is_stmt 0 view .LVU66
 236 0012 DA80     		strh	r2, [r3, #6]	@ movhi
 107:Core/Src/main.c **** 
 237              		.loc 1 107 3 is_stmt 1 view .LVU67
 238 0014 FFF7FEFF 		bl	HAL_Init
 239              	.LVL7:
 114:Core/Src/main.c **** 
 240              		.loc 1 114 3 view .LVU68
 241 0018 FFF7FEFF 		bl	SystemClock_Config
 242              	.LVL8:
 121:Core/Src/main.c ****   MX_SPI1_Init();
 243              		.loc 1 121 3 view .LVU69
 244 001c FFF7FEFF 		bl	MX_GPIO_Init
 245              	.LVL9:
 122:Core/Src/main.c ****   MX_ADC1_Init();
 246              		.loc 1 122 3 view .LVU70
 247 0020 FFF7FEFF 		bl	MX_SPI1_Init
 248              	.LVL10:
ARM GAS  /run/user/1000/ccey5E38.s 			page 14


 123:Core/Src/main.c ****   MX_USB_PCD_Init();
 249              		.loc 1 123 3 view .LVU71
 250 0024 FFF7FEFF 		bl	MX_ADC1_Init
 251              	.LVL11:
 124:Core/Src/main.c ****   /* USER CODE BEGIN 2 */
 252              		.loc 1 124 3 view .LVU72
 253 0028 FFF7FEFF 		bl	MX_USB_PCD_Init
 254              	.LVL12:
 126:Core/Src/main.c ****     HAL_Delay(10);
 255              		.loc 1 126 5 view .LVU73
 256 002c 8848     		ldr	r0, .L35+4
 257 002e FFF7FEFF 		bl	HAL_ADCEx_Calibration_Start
 258              	.LVL13:
 127:Core/Src/main.c **** 
 259              		.loc 1 127 5 view .LVU74
 260 0032 0A20     		movs	r0, #10
 261 0034 FFF7FEFF 		bl	HAL_Delay
 262              	.LVL14:
 129:Core/Src/main.c ****     while(!nRF24_Check());
 263              		.loc 1 129 5 view .LVU75
 264 0038 FFF7FEFF 		bl	nRF24_Init
 265              	.LVL15:
 130:Core/Src/main.c **** 
 266              		.loc 1 130 5 view .LVU76
 267              	.L12:
 130:Core/Src/main.c **** 
 268              		.loc 1 130 11 discriminator 1 view .LVU77
 130:Core/Src/main.c **** 
 269              		.loc 1 130 12 is_stmt 0 discriminator 1 view .LVU78
 270 003c FFF7FEFF 		bl	nRF24_Check
 271              	.LVL16:
 130:Core/Src/main.c **** 
 272              		.loc 1 130 11 discriminator 1 view .LVU79
 273 0040 0028     		cmp	r0, #0
 274 0042 FBD0     		beq	.L12
 132:Core/Src/main.c ****     uint8_t id[6] = {1, 0, 0, 0, 255, 0};
 275              		.loc 1 132 5 is_stmt 1 view .LVU80
 276 0044 0520     		movs	r0, #5
 277 0046 FFF7FEFF 		bl	nRF24_SetAddrWidth
 278              	.LVL17:
 133:Core/Src/main.c ****     nRF24_DisableAA(0xFF);
 279              		.loc 1 133 5 view .LVU81
 133:Core/Src/main.c ****     nRF24_DisableAA(0xFF);
 280              		.loc 1 133 13 is_stmt 0 view .LVU82
 281 004a 824B     		ldr	r3, .L35+8
 282 004c 93E80300 		ldm	r3, {r0, r1}
 283 0050 0490     		str	r0, [sp, #16]
 284 0052 ADF81410 		strh	r1, [sp, #20]	@ movhi
 134:Core/Src/main.c ****     nRF24_SetRFChannel(70);
 285              		.loc 1 134 5 is_stmt 1 view .LVU83
 286 0056 FF20     		movs	r0, #255
 287 0058 FFF7FEFF 		bl	nRF24_DisableAA
 288              	.LVL18:
 135:Core/Src/main.c ****     nRF24_SetTXPower(nRF24_TXPWR_0dBm);
 289              		.loc 1 135 5 view .LVU84
 290 005c 4620     		movs	r0, #70
 291 005e FFF7FEFF 		bl	nRF24_SetRFChannel
ARM GAS  /run/user/1000/ccey5E38.s 			page 15


 292              	.LVL19:
 136:Core/Src/main.c ****     nRF24_SetDataRate(nRF24_DR_250kbps);
 293              		.loc 1 136 5 view .LVU85
 294 0062 0620     		movs	r0, #6
 295 0064 FFF7FEFF 		bl	nRF24_SetTXPower
 296              	.LVL20:
 137:Core/Src/main.c ****     nRF24_SetAddr(nRF24_PIPETX,id);
 297              		.loc 1 137 5 view .LVU86
 298 0068 2020     		movs	r0, #32
 299 006a FFF7FEFF 		bl	nRF24_SetDataRate
 300              	.LVL21:
 138:Core/Src/main.c ****     nRF24_SetOperationalMode(nRF24_MODE_TX);
 301              		.loc 1 138 5 view .LVU87
 302 006e 04A9     		add	r1, sp, #16
 303 0070 0620     		movs	r0, #6
 304 0072 FFF7FEFF 		bl	nRF24_SetAddr
 305              	.LVL22:
 139:Core/Src/main.c ****     nRF24_SetPowerMode(nRF24_PWR_UP);
 306              		.loc 1 139 5 view .LVU88
 307 0076 0020     		movs	r0, #0
 308 0078 FFF7FEFF 		bl	nRF24_SetOperationalMode
 309              	.LVL23:
 140:Core/Src/main.c ****   /* USER CODE END 2 */
 310              		.loc 1 140 5 view .LVU89
 311 007c 0220     		movs	r0, #2
 312 007e FFF7FEFF 		bl	nRF24_SetPowerMode
 313              	.LVL24:
 145:Core/Src/main.c ****     uint32_t timestamp = HAL_GetTick();
 314              		.loc 1 145 5 view .LVU90
 146:Core/Src/main.c **** 
 315              		.loc 1 146 5 view .LVU91
 146:Core/Src/main.c **** 
 316              		.loc 1 146 26 is_stmt 0 view .LVU92
 317 0082 FFF7FEFF 		bl	HAL_GetTick
 318              	.LVL25:
 319 0086 0446     		mov	r4, r0
 320              	.LVL26:
 148:Core/Src/main.c ****     while (1) {
 321              		.loc 1 148 5 is_stmt 1 view .LVU93
 148:Core/Src/main.c ****     while (1) {
 322              		.loc 1 148 5 is_stmt 0 view .LVU94
 323 0088 81E0     		b	.L29
 324              	.LVL27:
 325              	.L34:
 326              	.LBB11:
 162:Core/Src/main.c ****                         break;
 327              		.loc 1 162 25 is_stmt 1 view .LVU95
 162:Core/Src/main.c ****                         break;
 328              		.loc 1 162 34 is_stmt 0 view .LVU96
 329 008a 2846     		mov	r0, r5
 330 008c FFF7FEFF 		bl	HAL_ADC_GetValue
 331              	.LVL28:
 162:Core/Src/main.c ****                         break;
 332              		.loc 1 162 32 view .LVU97
 333 0090 0190     		str	r0, [sp, #4]
 163:Core/Src/main.c ****                     case 1:
 334              		.loc 1 163 25 is_stmt 1 view .LVU98
ARM GAS  /run/user/1000/ccey5E38.s 			page 16


 335              	.LVL29:
 336              	.L17:
 172:Core/Src/main.c **** 
 337              		.loc 1 172 18 view .LVU99
 174:Core/Src/main.c ****             }
 338              		.loc 1 174 17 view .LVU100
 174:Core/Src/main.c ****             }
 339              		.loc 1 174 29 is_stmt 0 view .LVU101
 340 0092 0134     		adds	r4, r4, #1
 341              	.LVL30:
 174:Core/Src/main.c ****             }
 342              		.loc 1 174 29 view .LVU102
 343 0094 E4B2     		uxtb	r4, r4
 344              	.LVL31:
 345              	.L13:
 156:Core/Src/main.c ****                 HAL_ADC_Start(&hadc1);
 346              		.loc 1 156 31 is_stmt 1 view .LVU103
 347 0096 022C     		cmp	r4, #2
 348 0098 19D8     		bhi	.L33
 157:Core/Src/main.c ****                 HAL_ADC_PollForConversion(&hadc1, 1);
 349              		.loc 1 157 17 view .LVU104
 350 009a 6D4D     		ldr	r5, .L35+4
 351 009c 2846     		mov	r0, r5
 352 009e FFF7FEFF 		bl	HAL_ADC_Start
 353              	.LVL32:
 158:Core/Src/main.c **** 
 354              		.loc 1 158 17 view .LVU105
 355 00a2 0121     		movs	r1, #1
 356 00a4 2846     		mov	r0, r5
 357 00a6 FFF7FEFF 		bl	HAL_ADC_PollForConversion
 358              	.LVL33:
 160:Core/Src/main.c ****                     case 0:
 359              		.loc 1 160 17 view .LVU106
 360 00aa 012C     		cmp	r4, #1
 361 00ac 05D0     		beq	.L15
 362 00ae 022C     		cmp	r4, #2
 363 00b0 08D0     		beq	.L16
 364 00b2 002C     		cmp	r4, #0
 365 00b4 E9D0     		beq	.L34
 366 00b6 0424     		movs	r4, #4
 367              	.LVL34:
 160:Core/Src/main.c ****                     case 0:
 368              		.loc 1 160 17 is_stmt 0 view .LVU107
 369 00b8 EBE7     		b	.L17
 370              	.LVL35:
 371              	.L15:
 165:Core/Src/main.c ****                         break;
 372              		.loc 1 165 25 is_stmt 1 view .LVU108
 165:Core/Src/main.c ****                         break;
 373              		.loc 1 165 34 is_stmt 0 view .LVU109
 374 00ba 6548     		ldr	r0, .L35+4
 375 00bc FFF7FEFF 		bl	HAL_ADC_GetValue
 376              	.LVL36:
 165:Core/Src/main.c ****                         break;
 377              		.loc 1 165 32 view .LVU110
 378 00c0 0290     		str	r0, [sp, #8]
 166:Core/Src/main.c ****                     case 2:
ARM GAS  /run/user/1000/ccey5E38.s 			page 17


 379              		.loc 1 166 25 is_stmt 1 view .LVU111
 380 00c2 E6E7     		b	.L17
 381              	.L16:
 168:Core/Src/main.c ****                         break;
 382              		.loc 1 168 25 view .LVU112
 168:Core/Src/main.c ****                         break;
 383              		.loc 1 168 33 is_stmt 0 view .LVU113
 384 00c4 6248     		ldr	r0, .L35+4
 385 00c6 FFF7FEFF 		bl	HAL_ADC_GetValue
 386              	.LVL37:
 168:Core/Src/main.c ****                         break;
 387              		.loc 1 168 31 view .LVU114
 388 00ca 0390     		str	r0, [sp, #12]
 169:Core/Src/main.c ****                     default:
 389              		.loc 1 169 25 is_stmt 1 view .LVU115
 390 00cc E1E7     		b	.L17
 391              	.L33:
 177:Core/Src/main.c ****                 msg_tx.deserial.x_axis = (x_axis - X_BOT_BOUND) * 1000/ X_BOT_BOUND;
 392              		.loc 1 177 13 view .LVU116
 177:Core/Src/main.c ****                 msg_tx.deserial.x_axis = (x_axis - X_BOT_BOUND) * 1000/ X_BOT_BOUND;
 393              		.loc 1 177 24 is_stmt 0 view .LVU117
 394 00ce 019A     		ldr	r2, [sp, #4]
 177:Core/Src/main.c ****                 msg_tx.deserial.x_axis = (x_axis - X_BOT_BOUND) * 1000/ X_BOT_BOUND;
 395              		.loc 1 177 16 view .LVU118
 396 00d0 40F2BD53 		movw	r3, #1469
 397 00d4 9A42     		cmp	r2, r3
 398 00d6 65DC     		bgt	.L19
 178:Core/Src/main.c ****             }
 399              		.loc 1 178 17 is_stmt 1 view .LVU119
 178:Core/Src/main.c ****             }
 400              		.loc 1 178 52 is_stmt 0 view .LVU120
 401 00d8 019B     		ldr	r3, [sp, #4]
 402 00da A3F61603 		subw	r3, r3, #2070
 178:Core/Src/main.c ****             }
 403              		.loc 1 178 65 view .LVU121
 404 00de 4FF47A72 		mov	r2, #1000
 405 00e2 02FB03F3 		mul	r3, r2, r3
 178:Core/Src/main.c ****             }
 406              		.loc 1 178 71 view .LVU122
 407 00e6 5C4A     		ldr	r2, .L35+12
 408 00e8 82FB0312 		smull	r1, r2, r2, r3
 409 00ec 1A44     		add	r2, r2, r3
 410 00ee DB17     		asrs	r3, r3, #31
 411 00f0 C3EBA223 		rsb	r3, r3, r2, asr #10
 178:Core/Src/main.c ****             }
 412              		.loc 1 178 73 view .LVU123
 413 00f4 A3F59673 		sub	r3, r3, #300
 414 00f8 1BB2     		sxth	r3, r3
 178:Core/Src/main.c ****             }
 415              		.loc 1 178 40 view .LVU124
 416 00fa 544A     		ldr	r2, .L35
 417 00fc 5380     		strh	r3, [r2, #2]	@ movhi
 418              	.L20:
 187:Core/Src/main.c ****                 msg_tx.deserial.y_axis = (y_axis - Y_BOT_BOUND) * 1000 / Y_BOT_BOUND;
 419              		.loc 1 187 13 is_stmt 1 view .LVU125
 187:Core/Src/main.c ****                 msg_tx.deserial.y_axis = (y_axis - Y_BOT_BOUND) * 1000 / Y_BOT_BOUND;
 420              		.loc 1 187 24 is_stmt 0 view .LVU126
ARM GAS  /run/user/1000/ccey5E38.s 			page 18


 421 00fe 029A     		ldr	r2, [sp, #8]
 187:Core/Src/main.c ****                 msg_tx.deserial.y_axis = (y_axis - Y_BOT_BOUND) * 1000 / Y_BOT_BOUND;
 422              		.loc 1 187 16 view .LVU127
 423 0100 40F21E73 		movw	r3, #1822
 424 0104 9A42     		cmp	r2, r3
 425 0106 6ADC     		bgt	.L22
 188:Core/Src/main.c ****             }
 426              		.loc 1 188 17 is_stmt 1 view .LVU128
 188:Core/Src/main.c ****             }
 427              		.loc 1 188 52 is_stmt 0 view .LVU129
 428 0108 029B     		ldr	r3, [sp, #8]
 429 010a A3F6AF03 		subw	r3, r3, #2223
 188:Core/Src/main.c ****             }
 430              		.loc 1 188 65 view .LVU130
 431 010e 4FF47A72 		mov	r2, #1000
 432 0112 02FB03F3 		mul	r3, r2, r3
 188:Core/Src/main.c ****             }
 433              		.loc 1 188 72 view .LVU131
 434 0116 514A     		ldr	r2, .L35+16
 435 0118 82FB0312 		smull	r1, r2, r2, r3
 436 011c 1A44     		add	r2, r2, r3
 437 011e DB17     		asrs	r3, r3, #31
 438 0120 C3EBA223 		rsb	r3, r3, r2, asr #10
 188:Core/Src/main.c ****             }
 439              		.loc 1 188 74 view .LVU132
 440 0124 C83B     		subs	r3, r3, #200
 441 0126 1BB2     		sxth	r3, r3
 188:Core/Src/main.c ****             }
 442              		.loc 1 188 40 view .LVU133
 443 0128 484A     		ldr	r2, .L35
 444 012a 9380     		strh	r3, [r2, #4]	@ movhi
 445              	.L23:
 197:Core/Src/main.c ****                 msg_tx.deserial.twist = (twist - T_BOT_BOUND) * 1000 / T_BOT_BOUND;
 446              		.loc 1 197 13 is_stmt 1 view .LVU134
 197:Core/Src/main.c ****                 msg_tx.deserial.twist = (twist - T_BOT_BOUND) * 1000 / T_BOT_BOUND;
 447              		.loc 1 197 23 is_stmt 0 view .LVU135
 448 012c 039A     		ldr	r2, [sp, #12]
 197:Core/Src/main.c ****                 msg_tx.deserial.twist = (twist - T_BOT_BOUND) * 1000 / T_BOT_BOUND;
 449              		.loc 1 197 16 view .LVU136
 450 012e 40F21E73 		movw	r3, #1822
 451 0132 9A42     		cmp	r2, r3
 452 0134 6EDC     		bgt	.L25
 198:Core/Src/main.c ****             }
 453              		.loc 1 198 17 is_stmt 1 view .LVU137
 198:Core/Src/main.c ****             }
 454              		.loc 1 198 50 is_stmt 0 view .LVU138
 455 0136 039B     		ldr	r3, [sp, #12]
 456 0138 A3F6AF03 		subw	r3, r3, #2223
 198:Core/Src/main.c ****             }
 457              		.loc 1 198 63 view .LVU139
 458 013c 4FF47A72 		mov	r2, #1000
 459 0140 02FB03F3 		mul	r3, r2, r3
 198:Core/Src/main.c ****             }
 460              		.loc 1 198 70 view .LVU140
 461 0144 454A     		ldr	r2, .L35+16
 462 0146 82FB0312 		smull	r1, r2, r2, r3
 463 014a 1A44     		add	r2, r2, r3
ARM GAS  /run/user/1000/ccey5E38.s 			page 19


 464 014c DB17     		asrs	r3, r3, #31
 465 014e C3EBA223 		rsb	r3, r3, r2, asr #10
 198:Core/Src/main.c ****             }
 466              		.loc 1 198 72 view .LVU141
 467 0152 C83B     		subs	r3, r3, #200
 468 0154 1BB2     		sxth	r3, r3
 198:Core/Src/main.c ****             }
 469              		.loc 1 198 39 view .LVU142
 470 0156 3D4A     		ldr	r2, .L35
 471 0158 D380     		strh	r3, [r2, #6]	@ movhi
 472              	.L26:
 207:Core/Src/main.c **** 
 473              		.loc 1 207 13 is_stmt 1 view .LVU143
 207:Core/Src/main.c **** 
 474              		.loc 1 207 38 is_stmt 0 view .LVU144
 475 015a 0821     		movs	r1, #8
 476 015c 4048     		ldr	r0, .L35+20
 477 015e FFF7FEFF 		bl	HAL_GPIO_ReadPin
 478              	.LVL38:
 207:Core/Src/main.c **** 
 479              		.loc 1 207 36 view .LVU145
 480 0162 3A4B     		ldr	r3, .L35
 481 0164 5870     		strb	r0, [r3, #1]
 209:Core/Src/main.c ****         }
 482              		.loc 1 209 13 is_stmt 1 view .LVU146
 209:Core/Src/main.c ****         }
 483              		.loc 1 209 25 is_stmt 0 view .LVU147
 484 0166 FFF7FEFF 		bl	HAL_GetTick
 485              	.LVL39:
 486 016a 0446     		mov	r4, r0
 487              	.LVL40:
 488              	.L14:
 212:Core/Src/main.c ****         nRF24_CE_H; // activate coms to nrf, starts tx
 489              		.loc 1 212 9 is_stmt 1 view .LVU148
 490 016c 0821     		movs	r1, #8
 491 016e 3748     		ldr	r0, .L35
 492 0170 FFF7FEFF 		bl	nRF24_WritePayload
 493              	.LVL41:
 213:Core/Src/main.c ****         while (1) {
 494              		.loc 1 213 9 view .LVU149
 495              	.LBB12:
 496              	.LBI12:
 497              		.file 3 "Drivers/STM32F1xx_HAL_Driver/Inc/stm32f1xx_ll_gpio.h"
   1:Drivers/STM32F1xx_HAL_Driver/Inc/stm32f1xx_ll_gpio.h **** /**
   2:Drivers/STM32F1xx_HAL_Driver/Inc/stm32f1xx_ll_gpio.h ****   ******************************************************************************
   3:Drivers/STM32F1xx_HAL_Driver/Inc/stm32f1xx_ll_gpio.h ****   * @file    stm32f1xx_ll_gpio.h
   4:Drivers/STM32F1xx_HAL_Driver/Inc/stm32f1xx_ll_gpio.h ****   * @author  MCD Application Team
   5:Drivers/STM32F1xx_HAL_Driver/Inc/stm32f1xx_ll_gpio.h ****   * @brief   Header file of GPIO LL module.
   6:Drivers/STM32F1xx_HAL_Driver/Inc/stm32f1xx_ll_gpio.h ****   ******************************************************************************
   7:Drivers/STM32F1xx_HAL_Driver/Inc/stm32f1xx_ll_gpio.h ****   * @attention
   8:Drivers/STM32F1xx_HAL_Driver/Inc/stm32f1xx_ll_gpio.h ****   *
   9:Drivers/STM32F1xx_HAL_Driver/Inc/stm32f1xx_ll_gpio.h ****   * Copyright (c) 2016 STMicroelectronics.
  10:Drivers/STM32F1xx_HAL_Driver/Inc/stm32f1xx_ll_gpio.h ****   * All rights reserved.
  11:Drivers/STM32F1xx_HAL_Driver/Inc/stm32f1xx_ll_gpio.h ****   *
  12:Drivers/STM32F1xx_HAL_Driver/Inc/stm32f1xx_ll_gpio.h ****   * This software is licensed under terms that can be found in the LICENSE file
  13:Drivers/STM32F1xx_HAL_Driver/Inc/stm32f1xx_ll_gpio.h ****   * in the root directory of this software component.
  14:Drivers/STM32F1xx_HAL_Driver/Inc/stm32f1xx_ll_gpio.h ****   * If no LICENSE file comes with this software, it is provided AS-IS.
ARM GAS  /run/user/1000/ccey5E38.s 			page 20


  15:Drivers/STM32F1xx_HAL_Driver/Inc/stm32f1xx_ll_gpio.h ****   *
  16:Drivers/STM32F1xx_HAL_Driver/Inc/stm32f1xx_ll_gpio.h ****   ******************************************************************************
  17:Drivers/STM32F1xx_HAL_Driver/Inc/stm32f1xx_ll_gpio.h ****   */
  18:Drivers/STM32F1xx_HAL_Driver/Inc/stm32f1xx_ll_gpio.h **** 
  19:Drivers/STM32F1xx_HAL_Driver/Inc/stm32f1xx_ll_gpio.h **** /* Define to prevent recursive inclusion -------------------------------------*/
  20:Drivers/STM32F1xx_HAL_Driver/Inc/stm32f1xx_ll_gpio.h **** #ifndef STM32F1xx_LL_GPIO_H
  21:Drivers/STM32F1xx_HAL_Driver/Inc/stm32f1xx_ll_gpio.h **** #define STM32F1xx_LL_GPIO_H
  22:Drivers/STM32F1xx_HAL_Driver/Inc/stm32f1xx_ll_gpio.h **** 
  23:Drivers/STM32F1xx_HAL_Driver/Inc/stm32f1xx_ll_gpio.h **** #ifdef __cplusplus
  24:Drivers/STM32F1xx_HAL_Driver/Inc/stm32f1xx_ll_gpio.h **** extern "C" {
  25:Drivers/STM32F1xx_HAL_Driver/Inc/stm32f1xx_ll_gpio.h **** #endif
  26:Drivers/STM32F1xx_HAL_Driver/Inc/stm32f1xx_ll_gpio.h **** 
  27:Drivers/STM32F1xx_HAL_Driver/Inc/stm32f1xx_ll_gpio.h **** /* Includes ------------------------------------------------------------------*/
  28:Drivers/STM32F1xx_HAL_Driver/Inc/stm32f1xx_ll_gpio.h **** #include "stm32f1xx.h"
  29:Drivers/STM32F1xx_HAL_Driver/Inc/stm32f1xx_ll_gpio.h **** 
  30:Drivers/STM32F1xx_HAL_Driver/Inc/stm32f1xx_ll_gpio.h **** /** @addtogroup STM32F1xx_LL_Driver
  31:Drivers/STM32F1xx_HAL_Driver/Inc/stm32f1xx_ll_gpio.h ****   * @{
  32:Drivers/STM32F1xx_HAL_Driver/Inc/stm32f1xx_ll_gpio.h ****   */
  33:Drivers/STM32F1xx_HAL_Driver/Inc/stm32f1xx_ll_gpio.h **** 
  34:Drivers/STM32F1xx_HAL_Driver/Inc/stm32f1xx_ll_gpio.h **** #if defined (GPIOA) || defined (GPIOB) || defined (GPIOC) || defined (GPIOD) || defined (GPIOE) || 
  35:Drivers/STM32F1xx_HAL_Driver/Inc/stm32f1xx_ll_gpio.h **** 
  36:Drivers/STM32F1xx_HAL_Driver/Inc/stm32f1xx_ll_gpio.h **** /** @defgroup GPIO_LL GPIO
  37:Drivers/STM32F1xx_HAL_Driver/Inc/stm32f1xx_ll_gpio.h ****   * @{
  38:Drivers/STM32F1xx_HAL_Driver/Inc/stm32f1xx_ll_gpio.h ****   */
  39:Drivers/STM32F1xx_HAL_Driver/Inc/stm32f1xx_ll_gpio.h **** 
  40:Drivers/STM32F1xx_HAL_Driver/Inc/stm32f1xx_ll_gpio.h **** /* Private types -------------------------------------------------------------*/
  41:Drivers/STM32F1xx_HAL_Driver/Inc/stm32f1xx_ll_gpio.h **** /* Private variables ---------------------------------------------------------*/
  42:Drivers/STM32F1xx_HAL_Driver/Inc/stm32f1xx_ll_gpio.h **** /* Private constants ---------------------------------------------------------*/
  43:Drivers/STM32F1xx_HAL_Driver/Inc/stm32f1xx_ll_gpio.h **** 
  44:Drivers/STM32F1xx_HAL_Driver/Inc/stm32f1xx_ll_gpio.h **** /** @defgroup GPIO_LL_Private_Constants GPIO Private Constants
  45:Drivers/STM32F1xx_HAL_Driver/Inc/stm32f1xx_ll_gpio.h ****   * @{
  46:Drivers/STM32F1xx_HAL_Driver/Inc/stm32f1xx_ll_gpio.h ****   */
  47:Drivers/STM32F1xx_HAL_Driver/Inc/stm32f1xx_ll_gpio.h **** /* Defines used for Pin Mask Initialization */
  48:Drivers/STM32F1xx_HAL_Driver/Inc/stm32f1xx_ll_gpio.h **** #define GPIO_PIN_MASK_POS   8U
  49:Drivers/STM32F1xx_HAL_Driver/Inc/stm32f1xx_ll_gpio.h **** #define GPIO_PIN_NB         16U
  50:Drivers/STM32F1xx_HAL_Driver/Inc/stm32f1xx_ll_gpio.h **** /**
  51:Drivers/STM32F1xx_HAL_Driver/Inc/stm32f1xx_ll_gpio.h ****   * @}
  52:Drivers/STM32F1xx_HAL_Driver/Inc/stm32f1xx_ll_gpio.h ****   */
  53:Drivers/STM32F1xx_HAL_Driver/Inc/stm32f1xx_ll_gpio.h **** 
  54:Drivers/STM32F1xx_HAL_Driver/Inc/stm32f1xx_ll_gpio.h **** /* Private macros ------------------------------------------------------------*/
  55:Drivers/STM32F1xx_HAL_Driver/Inc/stm32f1xx_ll_gpio.h **** #if defined(USE_FULL_LL_DRIVER)
  56:Drivers/STM32F1xx_HAL_Driver/Inc/stm32f1xx_ll_gpio.h **** /** @defgroup GPIO_LL_Private_Macros GPIO Private Macros
  57:Drivers/STM32F1xx_HAL_Driver/Inc/stm32f1xx_ll_gpio.h ****   * @{
  58:Drivers/STM32F1xx_HAL_Driver/Inc/stm32f1xx_ll_gpio.h ****   */
  59:Drivers/STM32F1xx_HAL_Driver/Inc/stm32f1xx_ll_gpio.h **** 
  60:Drivers/STM32F1xx_HAL_Driver/Inc/stm32f1xx_ll_gpio.h **** /**
  61:Drivers/STM32F1xx_HAL_Driver/Inc/stm32f1xx_ll_gpio.h ****   * @}
  62:Drivers/STM32F1xx_HAL_Driver/Inc/stm32f1xx_ll_gpio.h ****   */
  63:Drivers/STM32F1xx_HAL_Driver/Inc/stm32f1xx_ll_gpio.h **** #endif /*USE_FULL_LL_DRIVER*/
  64:Drivers/STM32F1xx_HAL_Driver/Inc/stm32f1xx_ll_gpio.h **** 
  65:Drivers/STM32F1xx_HAL_Driver/Inc/stm32f1xx_ll_gpio.h **** /* Exported types ------------------------------------------------------------*/
  66:Drivers/STM32F1xx_HAL_Driver/Inc/stm32f1xx_ll_gpio.h **** #if defined(USE_FULL_LL_DRIVER)
  67:Drivers/STM32F1xx_HAL_Driver/Inc/stm32f1xx_ll_gpio.h **** /** @defgroup GPIO_LL_ES_INIT GPIO Exported Init structures
  68:Drivers/STM32F1xx_HAL_Driver/Inc/stm32f1xx_ll_gpio.h ****   * @{
  69:Drivers/STM32F1xx_HAL_Driver/Inc/stm32f1xx_ll_gpio.h ****   */
  70:Drivers/STM32F1xx_HAL_Driver/Inc/stm32f1xx_ll_gpio.h **** 
  71:Drivers/STM32F1xx_HAL_Driver/Inc/stm32f1xx_ll_gpio.h **** /**
ARM GAS  /run/user/1000/ccey5E38.s 			page 21


  72:Drivers/STM32F1xx_HAL_Driver/Inc/stm32f1xx_ll_gpio.h ****   * @brief LL GPIO Init Structure definition
  73:Drivers/STM32F1xx_HAL_Driver/Inc/stm32f1xx_ll_gpio.h ****   */
  74:Drivers/STM32F1xx_HAL_Driver/Inc/stm32f1xx_ll_gpio.h **** typedef struct
  75:Drivers/STM32F1xx_HAL_Driver/Inc/stm32f1xx_ll_gpio.h **** {
  76:Drivers/STM32F1xx_HAL_Driver/Inc/stm32f1xx_ll_gpio.h ****   uint32_t Pin;          /*!< Specifies the GPIO pins to be configured.
  77:Drivers/STM32F1xx_HAL_Driver/Inc/stm32f1xx_ll_gpio.h ****                               This parameter can be any value of @ref GPIO_LL_EC_PIN */
  78:Drivers/STM32F1xx_HAL_Driver/Inc/stm32f1xx_ll_gpio.h **** 
  79:Drivers/STM32F1xx_HAL_Driver/Inc/stm32f1xx_ll_gpio.h ****   uint32_t Mode;         /*!< Specifies the operating mode for the selected pins.
  80:Drivers/STM32F1xx_HAL_Driver/Inc/stm32f1xx_ll_gpio.h ****                               This parameter can be a value of @ref GPIO_LL_EC_MODE.
  81:Drivers/STM32F1xx_HAL_Driver/Inc/stm32f1xx_ll_gpio.h **** 
  82:Drivers/STM32F1xx_HAL_Driver/Inc/stm32f1xx_ll_gpio.h ****                               GPIO HW configuration can be modified afterwards using unitary functi
  83:Drivers/STM32F1xx_HAL_Driver/Inc/stm32f1xx_ll_gpio.h **** 
  84:Drivers/STM32F1xx_HAL_Driver/Inc/stm32f1xx_ll_gpio.h ****   uint32_t Speed;        /*!< Specifies the speed for the selected pins.
  85:Drivers/STM32F1xx_HAL_Driver/Inc/stm32f1xx_ll_gpio.h ****                               This parameter can be a value of @ref GPIO_LL_EC_SPEED.
  86:Drivers/STM32F1xx_HAL_Driver/Inc/stm32f1xx_ll_gpio.h **** 
  87:Drivers/STM32F1xx_HAL_Driver/Inc/stm32f1xx_ll_gpio.h ****                               GPIO HW configuration can be modified afterwards using unitary functi
  88:Drivers/STM32F1xx_HAL_Driver/Inc/stm32f1xx_ll_gpio.h **** 
  89:Drivers/STM32F1xx_HAL_Driver/Inc/stm32f1xx_ll_gpio.h ****   uint32_t OutputType;   /*!< Specifies the operating output type for the selected pins.
  90:Drivers/STM32F1xx_HAL_Driver/Inc/stm32f1xx_ll_gpio.h ****                               This parameter can be a value of @ref GPIO_LL_EC_OUTPUT.
  91:Drivers/STM32F1xx_HAL_Driver/Inc/stm32f1xx_ll_gpio.h **** 
  92:Drivers/STM32F1xx_HAL_Driver/Inc/stm32f1xx_ll_gpio.h ****                               GPIO HW configuration can be modified afterwards using unitary functi
  93:Drivers/STM32F1xx_HAL_Driver/Inc/stm32f1xx_ll_gpio.h **** 
  94:Drivers/STM32F1xx_HAL_Driver/Inc/stm32f1xx_ll_gpio.h ****   uint32_t Pull;         /*!< Specifies the operating Pull-up/Pull down for the selected pins.
  95:Drivers/STM32F1xx_HAL_Driver/Inc/stm32f1xx_ll_gpio.h ****                               This parameter can be a value of @ref GPIO_LL_EC_PULL.
  96:Drivers/STM32F1xx_HAL_Driver/Inc/stm32f1xx_ll_gpio.h **** 
  97:Drivers/STM32F1xx_HAL_Driver/Inc/stm32f1xx_ll_gpio.h ****                               GPIO HW configuration can be modified afterwards using unitary functi
  98:Drivers/STM32F1xx_HAL_Driver/Inc/stm32f1xx_ll_gpio.h **** } LL_GPIO_InitTypeDef;
  99:Drivers/STM32F1xx_HAL_Driver/Inc/stm32f1xx_ll_gpio.h **** 
 100:Drivers/STM32F1xx_HAL_Driver/Inc/stm32f1xx_ll_gpio.h **** /**
 101:Drivers/STM32F1xx_HAL_Driver/Inc/stm32f1xx_ll_gpio.h ****   * @}
 102:Drivers/STM32F1xx_HAL_Driver/Inc/stm32f1xx_ll_gpio.h ****   */
 103:Drivers/STM32F1xx_HAL_Driver/Inc/stm32f1xx_ll_gpio.h **** #endif /* USE_FULL_LL_DRIVER */
 104:Drivers/STM32F1xx_HAL_Driver/Inc/stm32f1xx_ll_gpio.h **** 
 105:Drivers/STM32F1xx_HAL_Driver/Inc/stm32f1xx_ll_gpio.h **** /* Exported constants --------------------------------------------------------*/
 106:Drivers/STM32F1xx_HAL_Driver/Inc/stm32f1xx_ll_gpio.h **** /** @defgroup GPIO_LL_Exported_Constants GPIO Exported Constants
 107:Drivers/STM32F1xx_HAL_Driver/Inc/stm32f1xx_ll_gpio.h ****   * @{
 108:Drivers/STM32F1xx_HAL_Driver/Inc/stm32f1xx_ll_gpio.h ****   */
 109:Drivers/STM32F1xx_HAL_Driver/Inc/stm32f1xx_ll_gpio.h **** 
 110:Drivers/STM32F1xx_HAL_Driver/Inc/stm32f1xx_ll_gpio.h **** /** @defgroup GPIO_LL_EC_PIN PIN
 111:Drivers/STM32F1xx_HAL_Driver/Inc/stm32f1xx_ll_gpio.h ****   * @{
 112:Drivers/STM32F1xx_HAL_Driver/Inc/stm32f1xx_ll_gpio.h ****   */
 113:Drivers/STM32F1xx_HAL_Driver/Inc/stm32f1xx_ll_gpio.h **** #define LL_GPIO_PIN_0                    ((GPIO_BSRR_BS0  << GPIO_PIN_MASK_POS) | 0x00000001U)  /*!
 114:Drivers/STM32F1xx_HAL_Driver/Inc/stm32f1xx_ll_gpio.h **** #define LL_GPIO_PIN_1                    ((GPIO_BSRR_BS1  << GPIO_PIN_MASK_POS) | 0x00000002U)  /*!
 115:Drivers/STM32F1xx_HAL_Driver/Inc/stm32f1xx_ll_gpio.h **** #define LL_GPIO_PIN_2                    ((GPIO_BSRR_BS2  << GPIO_PIN_MASK_POS) | 0x00000004U)  /*!
 116:Drivers/STM32F1xx_HAL_Driver/Inc/stm32f1xx_ll_gpio.h **** #define LL_GPIO_PIN_3                    ((GPIO_BSRR_BS3  << GPIO_PIN_MASK_POS) | 0x00000008U)  /*!
 117:Drivers/STM32F1xx_HAL_Driver/Inc/stm32f1xx_ll_gpio.h **** #define LL_GPIO_PIN_4                    ((GPIO_BSRR_BS4  << GPIO_PIN_MASK_POS) | 0x00000010U)  /*!
 118:Drivers/STM32F1xx_HAL_Driver/Inc/stm32f1xx_ll_gpio.h **** #define LL_GPIO_PIN_5                    ((GPIO_BSRR_BS5  << GPIO_PIN_MASK_POS) | 0x00000020U)  /*!
 119:Drivers/STM32F1xx_HAL_Driver/Inc/stm32f1xx_ll_gpio.h **** #define LL_GPIO_PIN_6                    ((GPIO_BSRR_BS6  << GPIO_PIN_MASK_POS) | 0x00000040U)  /*!
 120:Drivers/STM32F1xx_HAL_Driver/Inc/stm32f1xx_ll_gpio.h **** #define LL_GPIO_PIN_7                    ((GPIO_BSRR_BS7  << GPIO_PIN_MASK_POS) | 0x00000080U)  /*!
 121:Drivers/STM32F1xx_HAL_Driver/Inc/stm32f1xx_ll_gpio.h **** #define LL_GPIO_PIN_8                    ((GPIO_BSRR_BS8  << GPIO_PIN_MASK_POS) | 0x04000001U)  /*!
 122:Drivers/STM32F1xx_HAL_Driver/Inc/stm32f1xx_ll_gpio.h **** #define LL_GPIO_PIN_9                    ((GPIO_BSRR_BS9  << GPIO_PIN_MASK_POS) | 0x04000002U)  /*!
 123:Drivers/STM32F1xx_HAL_Driver/Inc/stm32f1xx_ll_gpio.h **** #define LL_GPIO_PIN_10                   ((GPIO_BSRR_BS10 << GPIO_PIN_MASK_POS) | 0x04000004U)  /*!
 124:Drivers/STM32F1xx_HAL_Driver/Inc/stm32f1xx_ll_gpio.h **** #define LL_GPIO_PIN_11                   ((GPIO_BSRR_BS11 << GPIO_PIN_MASK_POS) | 0x04000008U)  /*!
 125:Drivers/STM32F1xx_HAL_Driver/Inc/stm32f1xx_ll_gpio.h **** #define LL_GPIO_PIN_12                   ((GPIO_BSRR_BS12 << GPIO_PIN_MASK_POS) | 0x04000010U)  /*!
 126:Drivers/STM32F1xx_HAL_Driver/Inc/stm32f1xx_ll_gpio.h **** #define LL_GPIO_PIN_13                   ((GPIO_BSRR_BS13 << GPIO_PIN_MASK_POS) | 0x04000020U)  /*!
 127:Drivers/STM32F1xx_HAL_Driver/Inc/stm32f1xx_ll_gpio.h **** #define LL_GPIO_PIN_14                   ((GPIO_BSRR_BS14 << GPIO_PIN_MASK_POS) | 0x04000040U)  /*!
 128:Drivers/STM32F1xx_HAL_Driver/Inc/stm32f1xx_ll_gpio.h **** #define LL_GPIO_PIN_15                   ((GPIO_BSRR_BS15 << GPIO_PIN_MASK_POS) | 0x04000080U)  /*!
ARM GAS  /run/user/1000/ccey5E38.s 			page 22


 129:Drivers/STM32F1xx_HAL_Driver/Inc/stm32f1xx_ll_gpio.h **** #define LL_GPIO_PIN_ALL                  (LL_GPIO_PIN_0  | LL_GPIO_PIN_1  | LL_GPIO_PIN_2  | \
 130:Drivers/STM32F1xx_HAL_Driver/Inc/stm32f1xx_ll_gpio.h ****                                           LL_GPIO_PIN_3  | LL_GPIO_PIN_4  | LL_GPIO_PIN_5  | \
 131:Drivers/STM32F1xx_HAL_Driver/Inc/stm32f1xx_ll_gpio.h ****                                           LL_GPIO_PIN_6  | LL_GPIO_PIN_7  | LL_GPIO_PIN_8  | \
 132:Drivers/STM32F1xx_HAL_Driver/Inc/stm32f1xx_ll_gpio.h ****                                           LL_GPIO_PIN_9  | LL_GPIO_PIN_10 | LL_GPIO_PIN_11 | \
 133:Drivers/STM32F1xx_HAL_Driver/Inc/stm32f1xx_ll_gpio.h ****                                           LL_GPIO_PIN_12 | LL_GPIO_PIN_13 | LL_GPIO_PIN_14 | \
 134:Drivers/STM32F1xx_HAL_Driver/Inc/stm32f1xx_ll_gpio.h ****                                           LL_GPIO_PIN_15)                                      /*!<
 135:Drivers/STM32F1xx_HAL_Driver/Inc/stm32f1xx_ll_gpio.h **** /**
 136:Drivers/STM32F1xx_HAL_Driver/Inc/stm32f1xx_ll_gpio.h ****   * @}
 137:Drivers/STM32F1xx_HAL_Driver/Inc/stm32f1xx_ll_gpio.h ****   */
 138:Drivers/STM32F1xx_HAL_Driver/Inc/stm32f1xx_ll_gpio.h **** 
 139:Drivers/STM32F1xx_HAL_Driver/Inc/stm32f1xx_ll_gpio.h **** /** @defgroup GPIO_LL_EC_MODE Mode
 140:Drivers/STM32F1xx_HAL_Driver/Inc/stm32f1xx_ll_gpio.h ****   * @{
 141:Drivers/STM32F1xx_HAL_Driver/Inc/stm32f1xx_ll_gpio.h ****   */
 142:Drivers/STM32F1xx_HAL_Driver/Inc/stm32f1xx_ll_gpio.h **** #define LL_GPIO_MODE_ANALOG              0x00000000U       /*!< Select analog mode */
 143:Drivers/STM32F1xx_HAL_Driver/Inc/stm32f1xx_ll_gpio.h **** #define LL_GPIO_MODE_FLOATING            GPIO_CRL_CNF0_0   /*!< Select floating mode */
 144:Drivers/STM32F1xx_HAL_Driver/Inc/stm32f1xx_ll_gpio.h **** #define LL_GPIO_MODE_INPUT               GPIO_CRL_CNF0_1   /*!< Select input mode */
 145:Drivers/STM32F1xx_HAL_Driver/Inc/stm32f1xx_ll_gpio.h **** #define LL_GPIO_MODE_OUTPUT              GPIO_CRL_MODE0_0  /*!< Select general purpose output mode 
 146:Drivers/STM32F1xx_HAL_Driver/Inc/stm32f1xx_ll_gpio.h **** #define LL_GPIO_MODE_ALTERNATE           (GPIO_CRL_CNF0_1 | GPIO_CRL_MODE0_0) /*!< Select alternate
 147:Drivers/STM32F1xx_HAL_Driver/Inc/stm32f1xx_ll_gpio.h **** /**
 148:Drivers/STM32F1xx_HAL_Driver/Inc/stm32f1xx_ll_gpio.h ****   * @}
 149:Drivers/STM32F1xx_HAL_Driver/Inc/stm32f1xx_ll_gpio.h ****   */
 150:Drivers/STM32F1xx_HAL_Driver/Inc/stm32f1xx_ll_gpio.h **** 
 151:Drivers/STM32F1xx_HAL_Driver/Inc/stm32f1xx_ll_gpio.h **** /** @defgroup GPIO_LL_EC_OUTPUT Output Type
 152:Drivers/STM32F1xx_HAL_Driver/Inc/stm32f1xx_ll_gpio.h ****   * @{
 153:Drivers/STM32F1xx_HAL_Driver/Inc/stm32f1xx_ll_gpio.h ****   */
 154:Drivers/STM32F1xx_HAL_Driver/Inc/stm32f1xx_ll_gpio.h **** #define LL_GPIO_OUTPUT_PUSHPULL          0x00000000U                /*!< Select push-pull as output
 155:Drivers/STM32F1xx_HAL_Driver/Inc/stm32f1xx_ll_gpio.h **** #define LL_GPIO_OUTPUT_OPENDRAIN         GPIO_CRL_CNF0_0            /*!< Select open-drain as outpu
 156:Drivers/STM32F1xx_HAL_Driver/Inc/stm32f1xx_ll_gpio.h **** /**
 157:Drivers/STM32F1xx_HAL_Driver/Inc/stm32f1xx_ll_gpio.h ****   * @}
 158:Drivers/STM32F1xx_HAL_Driver/Inc/stm32f1xx_ll_gpio.h ****   */
 159:Drivers/STM32F1xx_HAL_Driver/Inc/stm32f1xx_ll_gpio.h **** 
 160:Drivers/STM32F1xx_HAL_Driver/Inc/stm32f1xx_ll_gpio.h **** /** @defgroup GPIO_LL_EC_SPEED Output Speed
 161:Drivers/STM32F1xx_HAL_Driver/Inc/stm32f1xx_ll_gpio.h ****   * @{
 162:Drivers/STM32F1xx_HAL_Driver/Inc/stm32f1xx_ll_gpio.h ****   */
 163:Drivers/STM32F1xx_HAL_Driver/Inc/stm32f1xx_ll_gpio.h **** #define LL_GPIO_MODE_OUTPUT_10MHz        GPIO_CRL_MODE0_0            /*!< Select Output mode, max s
 164:Drivers/STM32F1xx_HAL_Driver/Inc/stm32f1xx_ll_gpio.h **** #define LL_GPIO_MODE_OUTPUT_2MHz         GPIO_CRL_MODE0_1            /*!< Select Output mode, max s
 165:Drivers/STM32F1xx_HAL_Driver/Inc/stm32f1xx_ll_gpio.h **** #define LL_GPIO_MODE_OUTPUT_50MHz        GPIO_CRL_MODE0              /*!< Select Output mode, max s
 166:Drivers/STM32F1xx_HAL_Driver/Inc/stm32f1xx_ll_gpio.h **** /**
 167:Drivers/STM32F1xx_HAL_Driver/Inc/stm32f1xx_ll_gpio.h ****   * @}
 168:Drivers/STM32F1xx_HAL_Driver/Inc/stm32f1xx_ll_gpio.h ****   */
 169:Drivers/STM32F1xx_HAL_Driver/Inc/stm32f1xx_ll_gpio.h **** 
 170:Drivers/STM32F1xx_HAL_Driver/Inc/stm32f1xx_ll_gpio.h **** #define LL_GPIO_SPEED_FREQ_LOW           LL_GPIO_MODE_OUTPUT_2MHz    /*!< Select I/O low output spe
 171:Drivers/STM32F1xx_HAL_Driver/Inc/stm32f1xx_ll_gpio.h **** #define LL_GPIO_SPEED_FREQ_MEDIUM        LL_GPIO_MODE_OUTPUT_10MHz   /*!< Select I/O medium output 
 172:Drivers/STM32F1xx_HAL_Driver/Inc/stm32f1xx_ll_gpio.h **** #define LL_GPIO_SPEED_FREQ_HIGH          LL_GPIO_MODE_OUTPUT_50MHz   /*!< Select I/O high output sp
 173:Drivers/STM32F1xx_HAL_Driver/Inc/stm32f1xx_ll_gpio.h **** 
 174:Drivers/STM32F1xx_HAL_Driver/Inc/stm32f1xx_ll_gpio.h **** /** @defgroup GPIO_LL_EC_PULL Pull Up Pull Down
 175:Drivers/STM32F1xx_HAL_Driver/Inc/stm32f1xx_ll_gpio.h ****   * @{
 176:Drivers/STM32F1xx_HAL_Driver/Inc/stm32f1xx_ll_gpio.h ****   */
 177:Drivers/STM32F1xx_HAL_Driver/Inc/stm32f1xx_ll_gpio.h **** #define LL_GPIO_PULL_DOWN                0x00000000U    /*!< Select I/O pull down */
 178:Drivers/STM32F1xx_HAL_Driver/Inc/stm32f1xx_ll_gpio.h **** #define LL_GPIO_PULL_UP                  GPIO_ODR_ODR0  /*!< Select I/O pull up */
 179:Drivers/STM32F1xx_HAL_Driver/Inc/stm32f1xx_ll_gpio.h **** 
 180:Drivers/STM32F1xx_HAL_Driver/Inc/stm32f1xx_ll_gpio.h **** /**
 181:Drivers/STM32F1xx_HAL_Driver/Inc/stm32f1xx_ll_gpio.h ****   * @}
 182:Drivers/STM32F1xx_HAL_Driver/Inc/stm32f1xx_ll_gpio.h ****   */
 183:Drivers/STM32F1xx_HAL_Driver/Inc/stm32f1xx_ll_gpio.h **** 
 184:Drivers/STM32F1xx_HAL_Driver/Inc/stm32f1xx_ll_gpio.h **** /** @defgroup GPIO_LL_EVENTOUT_PIN EVENTOUT Pin
 185:Drivers/STM32F1xx_HAL_Driver/Inc/stm32f1xx_ll_gpio.h ****   * @{
ARM GAS  /run/user/1000/ccey5E38.s 			page 23


 186:Drivers/STM32F1xx_HAL_Driver/Inc/stm32f1xx_ll_gpio.h ****   */
 187:Drivers/STM32F1xx_HAL_Driver/Inc/stm32f1xx_ll_gpio.h **** 
 188:Drivers/STM32F1xx_HAL_Driver/Inc/stm32f1xx_ll_gpio.h **** #define LL_GPIO_AF_EVENTOUT_PIN_0        AFIO_EVCR_PIN_PX0   /*!< EVENTOUT on pin 0 */
 189:Drivers/STM32F1xx_HAL_Driver/Inc/stm32f1xx_ll_gpio.h **** #define LL_GPIO_AF_EVENTOUT_PIN_1        AFIO_EVCR_PIN_PX1   /*!< EVENTOUT on pin 1 */
 190:Drivers/STM32F1xx_HAL_Driver/Inc/stm32f1xx_ll_gpio.h **** #define LL_GPIO_AF_EVENTOUT_PIN_2        AFIO_EVCR_PIN_PX2   /*!< EVENTOUT on pin 2 */
 191:Drivers/STM32F1xx_HAL_Driver/Inc/stm32f1xx_ll_gpio.h **** #define LL_GPIO_AF_EVENTOUT_PIN_3        AFIO_EVCR_PIN_PX3   /*!< EVENTOUT on pin 3 */
 192:Drivers/STM32F1xx_HAL_Driver/Inc/stm32f1xx_ll_gpio.h **** #define LL_GPIO_AF_EVENTOUT_PIN_4        AFIO_EVCR_PIN_PX4   /*!< EVENTOUT on pin 4 */
 193:Drivers/STM32F1xx_HAL_Driver/Inc/stm32f1xx_ll_gpio.h **** #define LL_GPIO_AF_EVENTOUT_PIN_5        AFIO_EVCR_PIN_PX5   /*!< EVENTOUT on pin 5 */
 194:Drivers/STM32F1xx_HAL_Driver/Inc/stm32f1xx_ll_gpio.h **** #define LL_GPIO_AF_EVENTOUT_PIN_6        AFIO_EVCR_PIN_PX6   /*!< EVENTOUT on pin 6 */
 195:Drivers/STM32F1xx_HAL_Driver/Inc/stm32f1xx_ll_gpio.h **** #define LL_GPIO_AF_EVENTOUT_PIN_7        AFIO_EVCR_PIN_PX7   /*!< EVENTOUT on pin 7 */
 196:Drivers/STM32F1xx_HAL_Driver/Inc/stm32f1xx_ll_gpio.h **** #define LL_GPIO_AF_EVENTOUT_PIN_8        AFIO_EVCR_PIN_PX8   /*!< EVENTOUT on pin 8 */
 197:Drivers/STM32F1xx_HAL_Driver/Inc/stm32f1xx_ll_gpio.h **** #define LL_GPIO_AF_EVENTOUT_PIN_9        AFIO_EVCR_PIN_PX9   /*!< EVENTOUT on pin 9 */
 198:Drivers/STM32F1xx_HAL_Driver/Inc/stm32f1xx_ll_gpio.h **** #define LL_GPIO_AF_EVENTOUT_PIN_10       AFIO_EVCR_PIN_PX10  /*!< EVENTOUT on pin 10 */
 199:Drivers/STM32F1xx_HAL_Driver/Inc/stm32f1xx_ll_gpio.h **** #define LL_GPIO_AF_EVENTOUT_PIN_11       AFIO_EVCR_PIN_PX11  /*!< EVENTOUT on pin 11 */
 200:Drivers/STM32F1xx_HAL_Driver/Inc/stm32f1xx_ll_gpio.h **** #define LL_GPIO_AF_EVENTOUT_PIN_12       AFIO_EVCR_PIN_PX12  /*!< EVENTOUT on pin 12 */
 201:Drivers/STM32F1xx_HAL_Driver/Inc/stm32f1xx_ll_gpio.h **** #define LL_GPIO_AF_EVENTOUT_PIN_13       AFIO_EVCR_PIN_PX13  /*!< EVENTOUT on pin 13 */
 202:Drivers/STM32F1xx_HAL_Driver/Inc/stm32f1xx_ll_gpio.h **** #define LL_GPIO_AF_EVENTOUT_PIN_14       AFIO_EVCR_PIN_PX14  /*!< EVENTOUT on pin 14 */
 203:Drivers/STM32F1xx_HAL_Driver/Inc/stm32f1xx_ll_gpio.h **** #define LL_GPIO_AF_EVENTOUT_PIN_15       AFIO_EVCR_PIN_PX15  /*!< EVENTOUT on pin 15 */
 204:Drivers/STM32F1xx_HAL_Driver/Inc/stm32f1xx_ll_gpio.h **** 
 205:Drivers/STM32F1xx_HAL_Driver/Inc/stm32f1xx_ll_gpio.h **** /**
 206:Drivers/STM32F1xx_HAL_Driver/Inc/stm32f1xx_ll_gpio.h ****   * @}
 207:Drivers/STM32F1xx_HAL_Driver/Inc/stm32f1xx_ll_gpio.h ****   */
 208:Drivers/STM32F1xx_HAL_Driver/Inc/stm32f1xx_ll_gpio.h **** 
 209:Drivers/STM32F1xx_HAL_Driver/Inc/stm32f1xx_ll_gpio.h **** /** @defgroup GPIO_LL_EVENTOUT_PORT EVENTOUT Port
 210:Drivers/STM32F1xx_HAL_Driver/Inc/stm32f1xx_ll_gpio.h ****   * @{
 211:Drivers/STM32F1xx_HAL_Driver/Inc/stm32f1xx_ll_gpio.h ****   */
 212:Drivers/STM32F1xx_HAL_Driver/Inc/stm32f1xx_ll_gpio.h **** 
 213:Drivers/STM32F1xx_HAL_Driver/Inc/stm32f1xx_ll_gpio.h **** #define LL_GPIO_AF_EVENTOUT_PORT_A       AFIO_EVCR_PORT_PA  /*!< EVENTOUT on port A */
 214:Drivers/STM32F1xx_HAL_Driver/Inc/stm32f1xx_ll_gpio.h **** #define LL_GPIO_AF_EVENTOUT_PORT_B       AFIO_EVCR_PORT_PB  /*!< EVENTOUT on port B */
 215:Drivers/STM32F1xx_HAL_Driver/Inc/stm32f1xx_ll_gpio.h **** #define LL_GPIO_AF_EVENTOUT_PORT_C       AFIO_EVCR_PORT_PC  /*!< EVENTOUT on port C */
 216:Drivers/STM32F1xx_HAL_Driver/Inc/stm32f1xx_ll_gpio.h **** #define LL_GPIO_AF_EVENTOUT_PORT_D       AFIO_EVCR_PORT_PD  /*!< EVENTOUT on port D */
 217:Drivers/STM32F1xx_HAL_Driver/Inc/stm32f1xx_ll_gpio.h **** #define LL_GPIO_AF_EVENTOUT_PORT_E       AFIO_EVCR_PORT_PE  /*!< EVENTOUT on port E */
 218:Drivers/STM32F1xx_HAL_Driver/Inc/stm32f1xx_ll_gpio.h **** 
 219:Drivers/STM32F1xx_HAL_Driver/Inc/stm32f1xx_ll_gpio.h **** /**
 220:Drivers/STM32F1xx_HAL_Driver/Inc/stm32f1xx_ll_gpio.h ****   * @}
 221:Drivers/STM32F1xx_HAL_Driver/Inc/stm32f1xx_ll_gpio.h ****   */
 222:Drivers/STM32F1xx_HAL_Driver/Inc/stm32f1xx_ll_gpio.h **** 
 223:Drivers/STM32F1xx_HAL_Driver/Inc/stm32f1xx_ll_gpio.h **** /** @defgroup GPIO_LL_EC_EXTI_PORT GPIO EXTI PORT
 224:Drivers/STM32F1xx_HAL_Driver/Inc/stm32f1xx_ll_gpio.h ****   * @{
 225:Drivers/STM32F1xx_HAL_Driver/Inc/stm32f1xx_ll_gpio.h ****   */
 226:Drivers/STM32F1xx_HAL_Driver/Inc/stm32f1xx_ll_gpio.h **** #define LL_GPIO_AF_EXTI_PORTA            0U   /*!< EXTI PORT A */
 227:Drivers/STM32F1xx_HAL_Driver/Inc/stm32f1xx_ll_gpio.h **** #define LL_GPIO_AF_EXTI_PORTB            1U   /*!< EXTI PORT B */
 228:Drivers/STM32F1xx_HAL_Driver/Inc/stm32f1xx_ll_gpio.h **** #define LL_GPIO_AF_EXTI_PORTC            2U   /*!< EXTI PORT C */
 229:Drivers/STM32F1xx_HAL_Driver/Inc/stm32f1xx_ll_gpio.h **** #define LL_GPIO_AF_EXTI_PORTD            3U   /*!< EXTI PORT D */
 230:Drivers/STM32F1xx_HAL_Driver/Inc/stm32f1xx_ll_gpio.h **** #define LL_GPIO_AF_EXTI_PORTE            4U   /*!< EXTI PORT E */
 231:Drivers/STM32F1xx_HAL_Driver/Inc/stm32f1xx_ll_gpio.h **** #define LL_GPIO_AF_EXTI_PORTF            5U   /*!< EXTI PORT F */
 232:Drivers/STM32F1xx_HAL_Driver/Inc/stm32f1xx_ll_gpio.h **** #define LL_GPIO_AF_EXTI_PORTG            6U   /*!< EXTI PORT G */
 233:Drivers/STM32F1xx_HAL_Driver/Inc/stm32f1xx_ll_gpio.h **** /**
 234:Drivers/STM32F1xx_HAL_Driver/Inc/stm32f1xx_ll_gpio.h ****   * @}
 235:Drivers/STM32F1xx_HAL_Driver/Inc/stm32f1xx_ll_gpio.h ****   */
 236:Drivers/STM32F1xx_HAL_Driver/Inc/stm32f1xx_ll_gpio.h **** 
 237:Drivers/STM32F1xx_HAL_Driver/Inc/stm32f1xx_ll_gpio.h **** /** @defgroup GPIO_LL_EC_EXTI_LINE GPIO EXTI LINE
 238:Drivers/STM32F1xx_HAL_Driver/Inc/stm32f1xx_ll_gpio.h ****   * @{
 239:Drivers/STM32F1xx_HAL_Driver/Inc/stm32f1xx_ll_gpio.h ****   */
 240:Drivers/STM32F1xx_HAL_Driver/Inc/stm32f1xx_ll_gpio.h **** #define LL_GPIO_AF_EXTI_LINE0            (0x000FU << 16U | 0U)  /*!< EXTI_POSITION_0  | EXTICR[0] *
 241:Drivers/STM32F1xx_HAL_Driver/Inc/stm32f1xx_ll_gpio.h **** #define LL_GPIO_AF_EXTI_LINE1            (0x00F0U << 16U | 0U)  /*!< EXTI_POSITION_4  | EXTICR[0] *
 242:Drivers/STM32F1xx_HAL_Driver/Inc/stm32f1xx_ll_gpio.h **** #define LL_GPIO_AF_EXTI_LINE2            (0x0F00U << 16U | 0U)  /*!< EXTI_POSITION_8  | EXTICR[0] *
ARM GAS  /run/user/1000/ccey5E38.s 			page 24


 243:Drivers/STM32F1xx_HAL_Driver/Inc/stm32f1xx_ll_gpio.h **** #define LL_GPIO_AF_EXTI_LINE3            (0xF000U << 16U | 0U)  /*!< EXTI_POSITION_12 | EXTICR[0] *
 244:Drivers/STM32F1xx_HAL_Driver/Inc/stm32f1xx_ll_gpio.h **** #define LL_GPIO_AF_EXTI_LINE4            (0x000FU << 16U | 1U)  /*!< EXTI_POSITION_0  | EXTICR[1] *
 245:Drivers/STM32F1xx_HAL_Driver/Inc/stm32f1xx_ll_gpio.h **** #define LL_GPIO_AF_EXTI_LINE5            (0x00F0U << 16U | 1U)  /*!< EXTI_POSITION_4  | EXTICR[1] *
 246:Drivers/STM32F1xx_HAL_Driver/Inc/stm32f1xx_ll_gpio.h **** #define LL_GPIO_AF_EXTI_LINE6            (0x0F00U << 16U | 1U)  /*!< EXTI_POSITION_8  | EXTICR[1] *
 247:Drivers/STM32F1xx_HAL_Driver/Inc/stm32f1xx_ll_gpio.h **** #define LL_GPIO_AF_EXTI_LINE7            (0xF000U << 16U | 1U)  /*!< EXTI_POSITION_12 | EXTICR[1] *
 248:Drivers/STM32F1xx_HAL_Driver/Inc/stm32f1xx_ll_gpio.h **** #define LL_GPIO_AF_EXTI_LINE8            (0x000FU << 16U | 2U)  /*!< EXTI_POSITION_0  | EXTICR[2] *
 249:Drivers/STM32F1xx_HAL_Driver/Inc/stm32f1xx_ll_gpio.h **** #define LL_GPIO_AF_EXTI_LINE9            (0x00F0U << 16U | 2U)  /*!< EXTI_POSITION_4  | EXTICR[2] *
 250:Drivers/STM32F1xx_HAL_Driver/Inc/stm32f1xx_ll_gpio.h **** #define LL_GPIO_AF_EXTI_LINE10           (0x0F00U << 16U | 2U)  /*!< EXTI_POSITION_8  | EXTICR[2] *
 251:Drivers/STM32F1xx_HAL_Driver/Inc/stm32f1xx_ll_gpio.h **** #define LL_GPIO_AF_EXTI_LINE11           (0xF000U << 16U | 2U)  /*!< EXTI_POSITION_12 | EXTICR[2] *
 252:Drivers/STM32F1xx_HAL_Driver/Inc/stm32f1xx_ll_gpio.h **** #define LL_GPIO_AF_EXTI_LINE12           (0x000FU << 16U | 3U)  /*!< EXTI_POSITION_0  | EXTICR[3] *
 253:Drivers/STM32F1xx_HAL_Driver/Inc/stm32f1xx_ll_gpio.h **** #define LL_GPIO_AF_EXTI_LINE13           (0x00F0U << 16U | 3U)  /*!< EXTI_POSITION_4  | EXTICR[3] *
 254:Drivers/STM32F1xx_HAL_Driver/Inc/stm32f1xx_ll_gpio.h **** #define LL_GPIO_AF_EXTI_LINE14           (0x0F00U << 16U | 3U)  /*!< EXTI_POSITION_8  | EXTICR[3] *
 255:Drivers/STM32F1xx_HAL_Driver/Inc/stm32f1xx_ll_gpio.h **** #define LL_GPIO_AF_EXTI_LINE15           (0xF000U << 16U | 3U)  /*!< EXTI_POSITION_12 | EXTICR[3] *
 256:Drivers/STM32F1xx_HAL_Driver/Inc/stm32f1xx_ll_gpio.h **** /**
 257:Drivers/STM32F1xx_HAL_Driver/Inc/stm32f1xx_ll_gpio.h ****   * @}
 258:Drivers/STM32F1xx_HAL_Driver/Inc/stm32f1xx_ll_gpio.h ****   */
 259:Drivers/STM32F1xx_HAL_Driver/Inc/stm32f1xx_ll_gpio.h **** 
 260:Drivers/STM32F1xx_HAL_Driver/Inc/stm32f1xx_ll_gpio.h **** /**
 261:Drivers/STM32F1xx_HAL_Driver/Inc/stm32f1xx_ll_gpio.h ****   * @}
 262:Drivers/STM32F1xx_HAL_Driver/Inc/stm32f1xx_ll_gpio.h ****   */
 263:Drivers/STM32F1xx_HAL_Driver/Inc/stm32f1xx_ll_gpio.h **** 
 264:Drivers/STM32F1xx_HAL_Driver/Inc/stm32f1xx_ll_gpio.h **** /* Exported macro ------------------------------------------------------------*/
 265:Drivers/STM32F1xx_HAL_Driver/Inc/stm32f1xx_ll_gpio.h **** /** @defgroup GPIO_LL_Exported_Macros GPIO Exported Macros
 266:Drivers/STM32F1xx_HAL_Driver/Inc/stm32f1xx_ll_gpio.h ****   * @{
 267:Drivers/STM32F1xx_HAL_Driver/Inc/stm32f1xx_ll_gpio.h ****   */
 268:Drivers/STM32F1xx_HAL_Driver/Inc/stm32f1xx_ll_gpio.h **** 
 269:Drivers/STM32F1xx_HAL_Driver/Inc/stm32f1xx_ll_gpio.h **** /** @defgroup GPIO_LL_EM_WRITE_READ Common Write and read registers Macros
 270:Drivers/STM32F1xx_HAL_Driver/Inc/stm32f1xx_ll_gpio.h ****   * @{
 271:Drivers/STM32F1xx_HAL_Driver/Inc/stm32f1xx_ll_gpio.h ****   */
 272:Drivers/STM32F1xx_HAL_Driver/Inc/stm32f1xx_ll_gpio.h **** 
 273:Drivers/STM32F1xx_HAL_Driver/Inc/stm32f1xx_ll_gpio.h **** /**
 274:Drivers/STM32F1xx_HAL_Driver/Inc/stm32f1xx_ll_gpio.h ****   * @brief  Write a value in GPIO register
 275:Drivers/STM32F1xx_HAL_Driver/Inc/stm32f1xx_ll_gpio.h ****   * @param  __INSTANCE__ GPIO Instance
 276:Drivers/STM32F1xx_HAL_Driver/Inc/stm32f1xx_ll_gpio.h ****   * @param  __REG__ Register to be written
 277:Drivers/STM32F1xx_HAL_Driver/Inc/stm32f1xx_ll_gpio.h ****   * @param  __VALUE__ Value to be written in the register
 278:Drivers/STM32F1xx_HAL_Driver/Inc/stm32f1xx_ll_gpio.h ****   * @retval None
 279:Drivers/STM32F1xx_HAL_Driver/Inc/stm32f1xx_ll_gpio.h ****   */
 280:Drivers/STM32F1xx_HAL_Driver/Inc/stm32f1xx_ll_gpio.h **** #define LL_GPIO_WriteReg(__INSTANCE__, __REG__, __VALUE__) WRITE_REG(__INSTANCE__->__REG__, (__VALU
 281:Drivers/STM32F1xx_HAL_Driver/Inc/stm32f1xx_ll_gpio.h **** 
 282:Drivers/STM32F1xx_HAL_Driver/Inc/stm32f1xx_ll_gpio.h **** /**
 283:Drivers/STM32F1xx_HAL_Driver/Inc/stm32f1xx_ll_gpio.h ****   * @brief  Read a value in GPIO register
 284:Drivers/STM32F1xx_HAL_Driver/Inc/stm32f1xx_ll_gpio.h ****   * @param  __INSTANCE__ GPIO Instance
 285:Drivers/STM32F1xx_HAL_Driver/Inc/stm32f1xx_ll_gpio.h ****   * @param  __REG__ Register to be read
 286:Drivers/STM32F1xx_HAL_Driver/Inc/stm32f1xx_ll_gpio.h ****   * @retval Register value
 287:Drivers/STM32F1xx_HAL_Driver/Inc/stm32f1xx_ll_gpio.h ****   */
 288:Drivers/STM32F1xx_HAL_Driver/Inc/stm32f1xx_ll_gpio.h **** #define LL_GPIO_ReadReg(__INSTANCE__, __REG__) READ_REG(__INSTANCE__->__REG__)
 289:Drivers/STM32F1xx_HAL_Driver/Inc/stm32f1xx_ll_gpio.h **** /**
 290:Drivers/STM32F1xx_HAL_Driver/Inc/stm32f1xx_ll_gpio.h ****   * @}
 291:Drivers/STM32F1xx_HAL_Driver/Inc/stm32f1xx_ll_gpio.h ****   */
 292:Drivers/STM32F1xx_HAL_Driver/Inc/stm32f1xx_ll_gpio.h **** 
 293:Drivers/STM32F1xx_HAL_Driver/Inc/stm32f1xx_ll_gpio.h **** /**
 294:Drivers/STM32F1xx_HAL_Driver/Inc/stm32f1xx_ll_gpio.h ****   * @}
 295:Drivers/STM32F1xx_HAL_Driver/Inc/stm32f1xx_ll_gpio.h ****   */
 296:Drivers/STM32F1xx_HAL_Driver/Inc/stm32f1xx_ll_gpio.h **** 
 297:Drivers/STM32F1xx_HAL_Driver/Inc/stm32f1xx_ll_gpio.h **** /* Exported functions --------------------------------------------------------*/
 298:Drivers/STM32F1xx_HAL_Driver/Inc/stm32f1xx_ll_gpio.h **** /** @defgroup GPIO_LL_Exported_Functions GPIO Exported Functions
 299:Drivers/STM32F1xx_HAL_Driver/Inc/stm32f1xx_ll_gpio.h ****   * @{
ARM GAS  /run/user/1000/ccey5E38.s 			page 25


 300:Drivers/STM32F1xx_HAL_Driver/Inc/stm32f1xx_ll_gpio.h ****   */
 301:Drivers/STM32F1xx_HAL_Driver/Inc/stm32f1xx_ll_gpio.h **** 
 302:Drivers/STM32F1xx_HAL_Driver/Inc/stm32f1xx_ll_gpio.h **** /** @defgroup GPIO_LL_EF_Port_Configuration Port Configuration
 303:Drivers/STM32F1xx_HAL_Driver/Inc/stm32f1xx_ll_gpio.h ****   * @{
 304:Drivers/STM32F1xx_HAL_Driver/Inc/stm32f1xx_ll_gpio.h ****   */
 305:Drivers/STM32F1xx_HAL_Driver/Inc/stm32f1xx_ll_gpio.h **** 
 306:Drivers/STM32F1xx_HAL_Driver/Inc/stm32f1xx_ll_gpio.h **** /**
 307:Drivers/STM32F1xx_HAL_Driver/Inc/stm32f1xx_ll_gpio.h ****   * @brief  Configure gpio mode for a dedicated pin on dedicated port.
 308:Drivers/STM32F1xx_HAL_Driver/Inc/stm32f1xx_ll_gpio.h ****   * @note   I/O mode can be Analog, Floating input, Input with pull-up/pull-down, General purpose O
 309:Drivers/STM32F1xx_HAL_Driver/Inc/stm32f1xx_ll_gpio.h ****   *         Alternate function Output.
 310:Drivers/STM32F1xx_HAL_Driver/Inc/stm32f1xx_ll_gpio.h ****   * @note   Warning: only one pin can be passed as parameter.
 311:Drivers/STM32F1xx_HAL_Driver/Inc/stm32f1xx_ll_gpio.h ****   * @rmtoll CRL        CNFy         LL_GPIO_SetPinMode
 312:Drivers/STM32F1xx_HAL_Driver/Inc/stm32f1xx_ll_gpio.h ****   * @rmtoll CRL        MODEy        LL_GPIO_SetPinMode
 313:Drivers/STM32F1xx_HAL_Driver/Inc/stm32f1xx_ll_gpio.h ****   * @rmtoll CRH        CNFy         LL_GPIO_SetPinMode
 314:Drivers/STM32F1xx_HAL_Driver/Inc/stm32f1xx_ll_gpio.h ****   * @rmtoll CRH        MODEy        LL_GPIO_SetPinMode
 315:Drivers/STM32F1xx_HAL_Driver/Inc/stm32f1xx_ll_gpio.h ****   * @param  GPIOx GPIO Port
 316:Drivers/STM32F1xx_HAL_Driver/Inc/stm32f1xx_ll_gpio.h ****   * @param  Pin This parameter can be one of the following values:
 317:Drivers/STM32F1xx_HAL_Driver/Inc/stm32f1xx_ll_gpio.h ****   *         @arg @ref LL_GPIO_PIN_0
 318:Drivers/STM32F1xx_HAL_Driver/Inc/stm32f1xx_ll_gpio.h ****   *         @arg @ref LL_GPIO_PIN_1
 319:Drivers/STM32F1xx_HAL_Driver/Inc/stm32f1xx_ll_gpio.h ****   *         @arg @ref LL_GPIO_PIN_2
 320:Drivers/STM32F1xx_HAL_Driver/Inc/stm32f1xx_ll_gpio.h ****   *         @arg @ref LL_GPIO_PIN_3
 321:Drivers/STM32F1xx_HAL_Driver/Inc/stm32f1xx_ll_gpio.h ****   *         @arg @ref LL_GPIO_PIN_4
 322:Drivers/STM32F1xx_HAL_Driver/Inc/stm32f1xx_ll_gpio.h ****   *         @arg @ref LL_GPIO_PIN_5
 323:Drivers/STM32F1xx_HAL_Driver/Inc/stm32f1xx_ll_gpio.h ****   *         @arg @ref LL_GPIO_PIN_6
 324:Drivers/STM32F1xx_HAL_Driver/Inc/stm32f1xx_ll_gpio.h ****   *         @arg @ref LL_GPIO_PIN_7
 325:Drivers/STM32F1xx_HAL_Driver/Inc/stm32f1xx_ll_gpio.h ****   *         @arg @ref LL_GPIO_PIN_8
 326:Drivers/STM32F1xx_HAL_Driver/Inc/stm32f1xx_ll_gpio.h ****   *         @arg @ref LL_GPIO_PIN_9
 327:Drivers/STM32F1xx_HAL_Driver/Inc/stm32f1xx_ll_gpio.h ****   *         @arg @ref LL_GPIO_PIN_10
 328:Drivers/STM32F1xx_HAL_Driver/Inc/stm32f1xx_ll_gpio.h ****   *         @arg @ref LL_GPIO_PIN_11
 329:Drivers/STM32F1xx_HAL_Driver/Inc/stm32f1xx_ll_gpio.h ****   *         @arg @ref LL_GPIO_PIN_12
 330:Drivers/STM32F1xx_HAL_Driver/Inc/stm32f1xx_ll_gpio.h ****   *         @arg @ref LL_GPIO_PIN_13
 331:Drivers/STM32F1xx_HAL_Driver/Inc/stm32f1xx_ll_gpio.h ****   *         @arg @ref LL_GPIO_PIN_14
 332:Drivers/STM32F1xx_HAL_Driver/Inc/stm32f1xx_ll_gpio.h ****   *         @arg @ref LL_GPIO_PIN_15
 333:Drivers/STM32F1xx_HAL_Driver/Inc/stm32f1xx_ll_gpio.h ****   * @param  Mode This parameter can be one of the following values:
 334:Drivers/STM32F1xx_HAL_Driver/Inc/stm32f1xx_ll_gpio.h ****   *         @arg @ref LL_GPIO_MODE_ANALOG
 335:Drivers/STM32F1xx_HAL_Driver/Inc/stm32f1xx_ll_gpio.h ****   *         @arg @ref LL_GPIO_MODE_FLOATING
 336:Drivers/STM32F1xx_HAL_Driver/Inc/stm32f1xx_ll_gpio.h ****   *         @arg @ref LL_GPIO_MODE_INPUT
 337:Drivers/STM32F1xx_HAL_Driver/Inc/stm32f1xx_ll_gpio.h ****   *         @arg @ref LL_GPIO_MODE_OUTPUT
 338:Drivers/STM32F1xx_HAL_Driver/Inc/stm32f1xx_ll_gpio.h ****   *         @arg @ref LL_GPIO_MODE_ALTERNATE
 339:Drivers/STM32F1xx_HAL_Driver/Inc/stm32f1xx_ll_gpio.h ****   * @retval None
 340:Drivers/STM32F1xx_HAL_Driver/Inc/stm32f1xx_ll_gpio.h ****   */
 341:Drivers/STM32F1xx_HAL_Driver/Inc/stm32f1xx_ll_gpio.h **** __STATIC_INLINE void LL_GPIO_SetPinMode(GPIO_TypeDef *GPIOx, uint32_t Pin, uint32_t Mode)
 342:Drivers/STM32F1xx_HAL_Driver/Inc/stm32f1xx_ll_gpio.h **** {
 343:Drivers/STM32F1xx_HAL_Driver/Inc/stm32f1xx_ll_gpio.h ****   register uint32_t *pReg = (uint32_t *)((uint32_t)((uint32_t)(&GPIOx->CRL) + (Pin >> 24)));
 344:Drivers/STM32F1xx_HAL_Driver/Inc/stm32f1xx_ll_gpio.h ****   MODIFY_REG(*pReg, ((GPIO_CRL_CNF0 | GPIO_CRL_MODE0) << (POSITION_VAL(Pin) * 4U)), (Mode << (POSIT
 345:Drivers/STM32F1xx_HAL_Driver/Inc/stm32f1xx_ll_gpio.h **** }
 346:Drivers/STM32F1xx_HAL_Driver/Inc/stm32f1xx_ll_gpio.h **** 
 347:Drivers/STM32F1xx_HAL_Driver/Inc/stm32f1xx_ll_gpio.h **** /**
 348:Drivers/STM32F1xx_HAL_Driver/Inc/stm32f1xx_ll_gpio.h ****   * @brief  Return gpio mode for a dedicated pin on dedicated port.
 349:Drivers/STM32F1xx_HAL_Driver/Inc/stm32f1xx_ll_gpio.h ****   * @note   I/O mode can be Analog, Floating input, Input with pull-up/pull-down, General purpose O
 350:Drivers/STM32F1xx_HAL_Driver/Inc/stm32f1xx_ll_gpio.h ****   *         Alternate function Output.
 351:Drivers/STM32F1xx_HAL_Driver/Inc/stm32f1xx_ll_gpio.h ****   * @note   Warning: only one pin can be passed as parameter.
 352:Drivers/STM32F1xx_HAL_Driver/Inc/stm32f1xx_ll_gpio.h ****   * @rmtoll CRL        CNFy         LL_GPIO_GetPinMode
 353:Drivers/STM32F1xx_HAL_Driver/Inc/stm32f1xx_ll_gpio.h ****   * @rmtoll CRL        MODEy        LL_GPIO_GetPinMode
 354:Drivers/STM32F1xx_HAL_Driver/Inc/stm32f1xx_ll_gpio.h ****   * @rmtoll CRH        CNFy         LL_GPIO_GetPinMode
 355:Drivers/STM32F1xx_HAL_Driver/Inc/stm32f1xx_ll_gpio.h ****   * @rmtoll CRH        MODEy        LL_GPIO_GetPinMode
 356:Drivers/STM32F1xx_HAL_Driver/Inc/stm32f1xx_ll_gpio.h ****   * @param  GPIOx GPIO Port
ARM GAS  /run/user/1000/ccey5E38.s 			page 26


 357:Drivers/STM32F1xx_HAL_Driver/Inc/stm32f1xx_ll_gpio.h ****   * @param  Pin This parameter can be one of the following values:
 358:Drivers/STM32F1xx_HAL_Driver/Inc/stm32f1xx_ll_gpio.h ****   *         @arg @ref LL_GPIO_PIN_0
 359:Drivers/STM32F1xx_HAL_Driver/Inc/stm32f1xx_ll_gpio.h ****   *         @arg @ref LL_GPIO_PIN_1
 360:Drivers/STM32F1xx_HAL_Driver/Inc/stm32f1xx_ll_gpio.h ****   *         @arg @ref LL_GPIO_PIN_2
 361:Drivers/STM32F1xx_HAL_Driver/Inc/stm32f1xx_ll_gpio.h ****   *         @arg @ref LL_GPIO_PIN_3
 362:Drivers/STM32F1xx_HAL_Driver/Inc/stm32f1xx_ll_gpio.h ****   *         @arg @ref LL_GPIO_PIN_4
 363:Drivers/STM32F1xx_HAL_Driver/Inc/stm32f1xx_ll_gpio.h ****   *         @arg @ref LL_GPIO_PIN_5
 364:Drivers/STM32F1xx_HAL_Driver/Inc/stm32f1xx_ll_gpio.h ****   *         @arg @ref LL_GPIO_PIN_6
 365:Drivers/STM32F1xx_HAL_Driver/Inc/stm32f1xx_ll_gpio.h ****   *         @arg @ref LL_GPIO_PIN_7
 366:Drivers/STM32F1xx_HAL_Driver/Inc/stm32f1xx_ll_gpio.h ****   *         @arg @ref LL_GPIO_PIN_8
 367:Drivers/STM32F1xx_HAL_Driver/Inc/stm32f1xx_ll_gpio.h ****   *         @arg @ref LL_GPIO_PIN_9
 368:Drivers/STM32F1xx_HAL_Driver/Inc/stm32f1xx_ll_gpio.h ****   *         @arg @ref LL_GPIO_PIN_10
 369:Drivers/STM32F1xx_HAL_Driver/Inc/stm32f1xx_ll_gpio.h ****   *         @arg @ref LL_GPIO_PIN_11
 370:Drivers/STM32F1xx_HAL_Driver/Inc/stm32f1xx_ll_gpio.h ****   *         @arg @ref LL_GPIO_PIN_12
 371:Drivers/STM32F1xx_HAL_Driver/Inc/stm32f1xx_ll_gpio.h ****   *         @arg @ref LL_GPIO_PIN_13
 372:Drivers/STM32F1xx_HAL_Driver/Inc/stm32f1xx_ll_gpio.h ****   *         @arg @ref LL_GPIO_PIN_14
 373:Drivers/STM32F1xx_HAL_Driver/Inc/stm32f1xx_ll_gpio.h ****   *         @arg @ref LL_GPIO_PIN_15
 374:Drivers/STM32F1xx_HAL_Driver/Inc/stm32f1xx_ll_gpio.h ****   * @retval Returned value can be one of the following values:
 375:Drivers/STM32F1xx_HAL_Driver/Inc/stm32f1xx_ll_gpio.h ****   *         @arg @ref LL_GPIO_MODE_ANALOG
 376:Drivers/STM32F1xx_HAL_Driver/Inc/stm32f1xx_ll_gpio.h ****   *         @arg @ref LL_GPIO_MODE_FLOATING
 377:Drivers/STM32F1xx_HAL_Driver/Inc/stm32f1xx_ll_gpio.h ****   *         @arg @ref LL_GPIO_MODE_INPUT
 378:Drivers/STM32F1xx_HAL_Driver/Inc/stm32f1xx_ll_gpio.h ****   *         @arg @ref LL_GPIO_MODE_OUTPUT
 379:Drivers/STM32F1xx_HAL_Driver/Inc/stm32f1xx_ll_gpio.h ****   *         @arg @ref LL_GPIO_MODE_ALTERNATE
 380:Drivers/STM32F1xx_HAL_Driver/Inc/stm32f1xx_ll_gpio.h ****   */
 381:Drivers/STM32F1xx_HAL_Driver/Inc/stm32f1xx_ll_gpio.h **** __STATIC_INLINE uint32_t LL_GPIO_GetPinMode(GPIO_TypeDef *GPIOx, uint32_t Pin)
 382:Drivers/STM32F1xx_HAL_Driver/Inc/stm32f1xx_ll_gpio.h **** {
 383:Drivers/STM32F1xx_HAL_Driver/Inc/stm32f1xx_ll_gpio.h ****   register uint32_t *pReg = (uint32_t *)((uint32_t)((uint32_t)(&GPIOx->CRL) + (Pin >> 24)));
 384:Drivers/STM32F1xx_HAL_Driver/Inc/stm32f1xx_ll_gpio.h ****   return (READ_BIT(*pReg, ((GPIO_CRL_CNF0 | GPIO_CRL_MODE0) << (POSITION_VAL(Pin) * 4U))) >> (POSIT
 385:Drivers/STM32F1xx_HAL_Driver/Inc/stm32f1xx_ll_gpio.h **** }
 386:Drivers/STM32F1xx_HAL_Driver/Inc/stm32f1xx_ll_gpio.h **** 
 387:Drivers/STM32F1xx_HAL_Driver/Inc/stm32f1xx_ll_gpio.h **** /**
 388:Drivers/STM32F1xx_HAL_Driver/Inc/stm32f1xx_ll_gpio.h ****   * @brief  Configure gpio speed for a dedicated pin on dedicated port.
 389:Drivers/STM32F1xx_HAL_Driver/Inc/stm32f1xx_ll_gpio.h ****   * @note   I/O speed can be Low, Medium or Fast speed.
 390:Drivers/STM32F1xx_HAL_Driver/Inc/stm32f1xx_ll_gpio.h ****   * @note   Warning: only one pin can be passed as parameter.
 391:Drivers/STM32F1xx_HAL_Driver/Inc/stm32f1xx_ll_gpio.h ****   * @note   Refer to datasheet for frequency specifications and the power
 392:Drivers/STM32F1xx_HAL_Driver/Inc/stm32f1xx_ll_gpio.h ****   *         supply and load conditions for each speed.
 393:Drivers/STM32F1xx_HAL_Driver/Inc/stm32f1xx_ll_gpio.h ****   * @rmtoll CRL      MODEy       LL_GPIO_SetPinSpeed
 394:Drivers/STM32F1xx_HAL_Driver/Inc/stm32f1xx_ll_gpio.h ****   * @rmtoll CRH      MODEy       LL_GPIO_SetPinSpeed
 395:Drivers/STM32F1xx_HAL_Driver/Inc/stm32f1xx_ll_gpio.h ****   * @param  GPIOx GPIO Port
 396:Drivers/STM32F1xx_HAL_Driver/Inc/stm32f1xx_ll_gpio.h ****   * @param  Pin This parameter can be one of the following values:
 397:Drivers/STM32F1xx_HAL_Driver/Inc/stm32f1xx_ll_gpio.h ****   *         @arg @ref LL_GPIO_PIN_0
 398:Drivers/STM32F1xx_HAL_Driver/Inc/stm32f1xx_ll_gpio.h ****   *         @arg @ref LL_GPIO_PIN_1
 399:Drivers/STM32F1xx_HAL_Driver/Inc/stm32f1xx_ll_gpio.h ****   *         @arg @ref LL_GPIO_PIN_2
 400:Drivers/STM32F1xx_HAL_Driver/Inc/stm32f1xx_ll_gpio.h ****   *         @arg @ref LL_GPIO_PIN_3
 401:Drivers/STM32F1xx_HAL_Driver/Inc/stm32f1xx_ll_gpio.h ****   *         @arg @ref LL_GPIO_PIN_4
 402:Drivers/STM32F1xx_HAL_Driver/Inc/stm32f1xx_ll_gpio.h ****   *         @arg @ref LL_GPIO_PIN_5
 403:Drivers/STM32F1xx_HAL_Driver/Inc/stm32f1xx_ll_gpio.h ****   *         @arg @ref LL_GPIO_PIN_6
 404:Drivers/STM32F1xx_HAL_Driver/Inc/stm32f1xx_ll_gpio.h ****   *         @arg @ref LL_GPIO_PIN_7
 405:Drivers/STM32F1xx_HAL_Driver/Inc/stm32f1xx_ll_gpio.h ****   *         @arg @ref LL_GPIO_PIN_8
 406:Drivers/STM32F1xx_HAL_Driver/Inc/stm32f1xx_ll_gpio.h ****   *         @arg @ref LL_GPIO_PIN_9
 407:Drivers/STM32F1xx_HAL_Driver/Inc/stm32f1xx_ll_gpio.h ****   *         @arg @ref LL_GPIO_PIN_10
 408:Drivers/STM32F1xx_HAL_Driver/Inc/stm32f1xx_ll_gpio.h ****   *         @arg @ref LL_GPIO_PIN_11
 409:Drivers/STM32F1xx_HAL_Driver/Inc/stm32f1xx_ll_gpio.h ****   *         @arg @ref LL_GPIO_PIN_12
 410:Drivers/STM32F1xx_HAL_Driver/Inc/stm32f1xx_ll_gpio.h ****   *         @arg @ref LL_GPIO_PIN_13
 411:Drivers/STM32F1xx_HAL_Driver/Inc/stm32f1xx_ll_gpio.h ****   *         @arg @ref LL_GPIO_PIN_14
 412:Drivers/STM32F1xx_HAL_Driver/Inc/stm32f1xx_ll_gpio.h ****   *         @arg @ref LL_GPIO_PIN_15
 413:Drivers/STM32F1xx_HAL_Driver/Inc/stm32f1xx_ll_gpio.h ****   * @param  Speed This parameter can be one of the following values:
ARM GAS  /run/user/1000/ccey5E38.s 			page 27


 414:Drivers/STM32F1xx_HAL_Driver/Inc/stm32f1xx_ll_gpio.h ****   *         @arg @ref LL_GPIO_SPEED_FREQ_LOW
 415:Drivers/STM32F1xx_HAL_Driver/Inc/stm32f1xx_ll_gpio.h ****   *         @arg @ref LL_GPIO_SPEED_FREQ_MEDIUM
 416:Drivers/STM32F1xx_HAL_Driver/Inc/stm32f1xx_ll_gpio.h ****   *         @arg @ref LL_GPIO_SPEED_FREQ_HIGH
 417:Drivers/STM32F1xx_HAL_Driver/Inc/stm32f1xx_ll_gpio.h ****   * @retval None
 418:Drivers/STM32F1xx_HAL_Driver/Inc/stm32f1xx_ll_gpio.h ****   */
 419:Drivers/STM32F1xx_HAL_Driver/Inc/stm32f1xx_ll_gpio.h **** __STATIC_INLINE void LL_GPIO_SetPinSpeed(GPIO_TypeDef *GPIOx, uint32_t Pin, uint32_t  Speed)
 420:Drivers/STM32F1xx_HAL_Driver/Inc/stm32f1xx_ll_gpio.h **** {
 421:Drivers/STM32F1xx_HAL_Driver/Inc/stm32f1xx_ll_gpio.h ****   register uint32_t *pReg = (uint32_t *)((uint32_t)((uint32_t)(&GPIOx->CRL) + (Pin >> 24)));
 422:Drivers/STM32F1xx_HAL_Driver/Inc/stm32f1xx_ll_gpio.h ****   MODIFY_REG(*pReg, (GPIO_CRL_MODE0 << (POSITION_VAL(Pin) * 4U)),
 423:Drivers/STM32F1xx_HAL_Driver/Inc/stm32f1xx_ll_gpio.h ****              (Speed << (POSITION_VAL(Pin) * 4U)));
 424:Drivers/STM32F1xx_HAL_Driver/Inc/stm32f1xx_ll_gpio.h **** }
 425:Drivers/STM32F1xx_HAL_Driver/Inc/stm32f1xx_ll_gpio.h **** 
 426:Drivers/STM32F1xx_HAL_Driver/Inc/stm32f1xx_ll_gpio.h **** /**
 427:Drivers/STM32F1xx_HAL_Driver/Inc/stm32f1xx_ll_gpio.h ****   * @brief  Return gpio speed for a dedicated pin on dedicated port.
 428:Drivers/STM32F1xx_HAL_Driver/Inc/stm32f1xx_ll_gpio.h ****   * @note   I/O speed can be Low, Medium, Fast or High speed.
 429:Drivers/STM32F1xx_HAL_Driver/Inc/stm32f1xx_ll_gpio.h ****   * @note   Warning: only one pin can be passed as parameter.
 430:Drivers/STM32F1xx_HAL_Driver/Inc/stm32f1xx_ll_gpio.h ****   * @note   Refer to datasheet for frequency specifications and the power
 431:Drivers/STM32F1xx_HAL_Driver/Inc/stm32f1xx_ll_gpio.h ****   *         supply and load conditions for each speed.
 432:Drivers/STM32F1xx_HAL_Driver/Inc/stm32f1xx_ll_gpio.h ****   * @rmtoll CRL      MODEy       LL_GPIO_GetPinSpeed
 433:Drivers/STM32F1xx_HAL_Driver/Inc/stm32f1xx_ll_gpio.h ****   * @rmtoll CRH      MODEy       LL_GPIO_GetPinSpeed
 434:Drivers/STM32F1xx_HAL_Driver/Inc/stm32f1xx_ll_gpio.h ****   * @param  GPIOx GPIO Port
 435:Drivers/STM32F1xx_HAL_Driver/Inc/stm32f1xx_ll_gpio.h ****   * @param  Pin This parameter can be one of the following values:
 436:Drivers/STM32F1xx_HAL_Driver/Inc/stm32f1xx_ll_gpio.h ****   *         @arg @ref LL_GPIO_PIN_0
 437:Drivers/STM32F1xx_HAL_Driver/Inc/stm32f1xx_ll_gpio.h ****   *         @arg @ref LL_GPIO_PIN_1
 438:Drivers/STM32F1xx_HAL_Driver/Inc/stm32f1xx_ll_gpio.h ****   *         @arg @ref LL_GPIO_PIN_2
 439:Drivers/STM32F1xx_HAL_Driver/Inc/stm32f1xx_ll_gpio.h ****   *         @arg @ref LL_GPIO_PIN_3
 440:Drivers/STM32F1xx_HAL_Driver/Inc/stm32f1xx_ll_gpio.h ****   *         @arg @ref LL_GPIO_PIN_4
 441:Drivers/STM32F1xx_HAL_Driver/Inc/stm32f1xx_ll_gpio.h ****   *         @arg @ref LL_GPIO_PIN_5
 442:Drivers/STM32F1xx_HAL_Driver/Inc/stm32f1xx_ll_gpio.h ****   *         @arg @ref LL_GPIO_PIN_6
 443:Drivers/STM32F1xx_HAL_Driver/Inc/stm32f1xx_ll_gpio.h ****   *         @arg @ref LL_GPIO_PIN_7
 444:Drivers/STM32F1xx_HAL_Driver/Inc/stm32f1xx_ll_gpio.h ****   *         @arg @ref LL_GPIO_PIN_8
 445:Drivers/STM32F1xx_HAL_Driver/Inc/stm32f1xx_ll_gpio.h ****   *         @arg @ref LL_GPIO_PIN_9
 446:Drivers/STM32F1xx_HAL_Driver/Inc/stm32f1xx_ll_gpio.h ****   *         @arg @ref LL_GPIO_PIN_10
 447:Drivers/STM32F1xx_HAL_Driver/Inc/stm32f1xx_ll_gpio.h ****   *         @arg @ref LL_GPIO_PIN_11
 448:Drivers/STM32F1xx_HAL_Driver/Inc/stm32f1xx_ll_gpio.h ****   *         @arg @ref LL_GPIO_PIN_12
 449:Drivers/STM32F1xx_HAL_Driver/Inc/stm32f1xx_ll_gpio.h ****   *         @arg @ref LL_GPIO_PIN_13
 450:Drivers/STM32F1xx_HAL_Driver/Inc/stm32f1xx_ll_gpio.h ****   *         @arg @ref LL_GPIO_PIN_14
 451:Drivers/STM32F1xx_HAL_Driver/Inc/stm32f1xx_ll_gpio.h ****   *         @arg @ref LL_GPIO_PIN_15
 452:Drivers/STM32F1xx_HAL_Driver/Inc/stm32f1xx_ll_gpio.h ****   * @retval Returned value can be one of the following values:
 453:Drivers/STM32F1xx_HAL_Driver/Inc/stm32f1xx_ll_gpio.h ****   *         @arg @ref LL_GPIO_SPEED_FREQ_LOW
 454:Drivers/STM32F1xx_HAL_Driver/Inc/stm32f1xx_ll_gpio.h ****   *         @arg @ref LL_GPIO_SPEED_FREQ_MEDIUM
 455:Drivers/STM32F1xx_HAL_Driver/Inc/stm32f1xx_ll_gpio.h ****   *         @arg @ref LL_GPIO_SPEED_FREQ_HIGH
 456:Drivers/STM32F1xx_HAL_Driver/Inc/stm32f1xx_ll_gpio.h ****   */
 457:Drivers/STM32F1xx_HAL_Driver/Inc/stm32f1xx_ll_gpio.h **** __STATIC_INLINE uint32_t LL_GPIO_GetPinSpeed(GPIO_TypeDef *GPIOx, uint32_t Pin)
 458:Drivers/STM32F1xx_HAL_Driver/Inc/stm32f1xx_ll_gpio.h **** {
 459:Drivers/STM32F1xx_HAL_Driver/Inc/stm32f1xx_ll_gpio.h ****   register uint32_t *pReg = (uint32_t *)((uint32_t)((uint32_t)(&GPIOx->CRL) + (Pin >> 24)));
 460:Drivers/STM32F1xx_HAL_Driver/Inc/stm32f1xx_ll_gpio.h ****   return (READ_BIT(*pReg, (GPIO_CRL_MODE0 << (POSITION_VAL(Pin) * 4U))) >> (POSITION_VAL(Pin) * 4U)
 461:Drivers/STM32F1xx_HAL_Driver/Inc/stm32f1xx_ll_gpio.h **** }
 462:Drivers/STM32F1xx_HAL_Driver/Inc/stm32f1xx_ll_gpio.h **** 
 463:Drivers/STM32F1xx_HAL_Driver/Inc/stm32f1xx_ll_gpio.h **** /**
 464:Drivers/STM32F1xx_HAL_Driver/Inc/stm32f1xx_ll_gpio.h ****   * @brief  Configure gpio output type for several pins on dedicated port.
 465:Drivers/STM32F1xx_HAL_Driver/Inc/stm32f1xx_ll_gpio.h ****   * @note   Output type as to be set when gpio pin is in output or
 466:Drivers/STM32F1xx_HAL_Driver/Inc/stm32f1xx_ll_gpio.h ****   *         alternate modes. Possible type are Push-pull or Open-drain.
 467:Drivers/STM32F1xx_HAL_Driver/Inc/stm32f1xx_ll_gpio.h ****   * @rmtoll CRL       MODEy           LL_GPIO_SetPinOutputType
 468:Drivers/STM32F1xx_HAL_Driver/Inc/stm32f1xx_ll_gpio.h ****   * @rmtoll CRH       MODEy           LL_GPIO_SetPinOutputType
 469:Drivers/STM32F1xx_HAL_Driver/Inc/stm32f1xx_ll_gpio.h ****   * @param  GPIOx GPIO Port
 470:Drivers/STM32F1xx_HAL_Driver/Inc/stm32f1xx_ll_gpio.h ****   * @param  Pin This parameter can be a combination of the following values:
ARM GAS  /run/user/1000/ccey5E38.s 			page 28


 471:Drivers/STM32F1xx_HAL_Driver/Inc/stm32f1xx_ll_gpio.h ****   *         @arg @ref LL_GPIO_PIN_0
 472:Drivers/STM32F1xx_HAL_Driver/Inc/stm32f1xx_ll_gpio.h ****   *         @arg @ref LL_GPIO_PIN_1
 473:Drivers/STM32F1xx_HAL_Driver/Inc/stm32f1xx_ll_gpio.h ****   *         @arg @ref LL_GPIO_PIN_2
 474:Drivers/STM32F1xx_HAL_Driver/Inc/stm32f1xx_ll_gpio.h ****   *         @arg @ref LL_GPIO_PIN_3
 475:Drivers/STM32F1xx_HAL_Driver/Inc/stm32f1xx_ll_gpio.h ****   *         @arg @ref LL_GPIO_PIN_4
 476:Drivers/STM32F1xx_HAL_Driver/Inc/stm32f1xx_ll_gpio.h ****   *         @arg @ref LL_GPIO_PIN_5
 477:Drivers/STM32F1xx_HAL_Driver/Inc/stm32f1xx_ll_gpio.h ****   *         @arg @ref LL_GPIO_PIN_6
 478:Drivers/STM32F1xx_HAL_Driver/Inc/stm32f1xx_ll_gpio.h ****   *         @arg @ref LL_GPIO_PIN_7
 479:Drivers/STM32F1xx_HAL_Driver/Inc/stm32f1xx_ll_gpio.h ****   *         @arg @ref LL_GPIO_PIN_8
 480:Drivers/STM32F1xx_HAL_Driver/Inc/stm32f1xx_ll_gpio.h ****   *         @arg @ref LL_GPIO_PIN_9
 481:Drivers/STM32F1xx_HAL_Driver/Inc/stm32f1xx_ll_gpio.h ****   *         @arg @ref LL_GPIO_PIN_10
 482:Drivers/STM32F1xx_HAL_Driver/Inc/stm32f1xx_ll_gpio.h ****   *         @arg @ref LL_GPIO_PIN_11
 483:Drivers/STM32F1xx_HAL_Driver/Inc/stm32f1xx_ll_gpio.h ****   *         @arg @ref LL_GPIO_PIN_12
 484:Drivers/STM32F1xx_HAL_Driver/Inc/stm32f1xx_ll_gpio.h ****   *         @arg @ref LL_GPIO_PIN_13
 485:Drivers/STM32F1xx_HAL_Driver/Inc/stm32f1xx_ll_gpio.h ****   *         @arg @ref LL_GPIO_PIN_14
 486:Drivers/STM32F1xx_HAL_Driver/Inc/stm32f1xx_ll_gpio.h ****   *         @arg @ref LL_GPIO_PIN_15
 487:Drivers/STM32F1xx_HAL_Driver/Inc/stm32f1xx_ll_gpio.h ****   *         @arg @ref LL_GPIO_PIN_ALL
 488:Drivers/STM32F1xx_HAL_Driver/Inc/stm32f1xx_ll_gpio.h ****   * @param  OutputType This parameter can be one of the following values:
 489:Drivers/STM32F1xx_HAL_Driver/Inc/stm32f1xx_ll_gpio.h ****   *         @arg @ref LL_GPIO_OUTPUT_PUSHPULL
 490:Drivers/STM32F1xx_HAL_Driver/Inc/stm32f1xx_ll_gpio.h ****   *         @arg @ref LL_GPIO_OUTPUT_OPENDRAIN
 491:Drivers/STM32F1xx_HAL_Driver/Inc/stm32f1xx_ll_gpio.h ****   * @retval None
 492:Drivers/STM32F1xx_HAL_Driver/Inc/stm32f1xx_ll_gpio.h ****   */
 493:Drivers/STM32F1xx_HAL_Driver/Inc/stm32f1xx_ll_gpio.h **** __STATIC_INLINE void LL_GPIO_SetPinOutputType(GPIO_TypeDef *GPIOx, uint32_t Pin, uint32_t OutputTyp
 494:Drivers/STM32F1xx_HAL_Driver/Inc/stm32f1xx_ll_gpio.h **** {
 495:Drivers/STM32F1xx_HAL_Driver/Inc/stm32f1xx_ll_gpio.h ****   register uint32_t *pReg = (uint32_t *)((uint32_t)((uint32_t)(&GPIOx->CRL) + (Pin >> 24)));
 496:Drivers/STM32F1xx_HAL_Driver/Inc/stm32f1xx_ll_gpio.h ****   MODIFY_REG(*pReg, (GPIO_CRL_CNF0_0 << (POSITION_VAL(Pin) * 4U)),
 497:Drivers/STM32F1xx_HAL_Driver/Inc/stm32f1xx_ll_gpio.h ****              (OutputType << (POSITION_VAL(Pin) * 4U)));
 498:Drivers/STM32F1xx_HAL_Driver/Inc/stm32f1xx_ll_gpio.h **** }
 499:Drivers/STM32F1xx_HAL_Driver/Inc/stm32f1xx_ll_gpio.h **** 
 500:Drivers/STM32F1xx_HAL_Driver/Inc/stm32f1xx_ll_gpio.h **** /**
 501:Drivers/STM32F1xx_HAL_Driver/Inc/stm32f1xx_ll_gpio.h ****   * @brief  Return gpio output type for several pins on dedicated port.
 502:Drivers/STM32F1xx_HAL_Driver/Inc/stm32f1xx_ll_gpio.h ****   * @note   Output type as to be set when gpio pin is in output or
 503:Drivers/STM32F1xx_HAL_Driver/Inc/stm32f1xx_ll_gpio.h ****   *         alternate modes. Possible type are Push-pull or Open-drain.
 504:Drivers/STM32F1xx_HAL_Driver/Inc/stm32f1xx_ll_gpio.h ****   * @note   Warning: only one pin can be passed as parameter.
 505:Drivers/STM32F1xx_HAL_Driver/Inc/stm32f1xx_ll_gpio.h ****   * @rmtoll CRL       MODEy       LL_GPIO_GetPinOutputType
 506:Drivers/STM32F1xx_HAL_Driver/Inc/stm32f1xx_ll_gpio.h ****   * @rmtoll CRH       MODEy       LL_GPIO_GetPinOutputType
 507:Drivers/STM32F1xx_HAL_Driver/Inc/stm32f1xx_ll_gpio.h ****   * @param  GPIOx GPIO Port
 508:Drivers/STM32F1xx_HAL_Driver/Inc/stm32f1xx_ll_gpio.h ****   * @param  Pin This parameter can be one of the following values:
 509:Drivers/STM32F1xx_HAL_Driver/Inc/stm32f1xx_ll_gpio.h ****   *         @arg @ref LL_GPIO_PIN_0
 510:Drivers/STM32F1xx_HAL_Driver/Inc/stm32f1xx_ll_gpio.h ****   *         @arg @ref LL_GPIO_PIN_1
 511:Drivers/STM32F1xx_HAL_Driver/Inc/stm32f1xx_ll_gpio.h ****   *         @arg @ref LL_GPIO_PIN_2
 512:Drivers/STM32F1xx_HAL_Driver/Inc/stm32f1xx_ll_gpio.h ****   *         @arg @ref LL_GPIO_PIN_3
 513:Drivers/STM32F1xx_HAL_Driver/Inc/stm32f1xx_ll_gpio.h ****   *         @arg @ref LL_GPIO_PIN_4
 514:Drivers/STM32F1xx_HAL_Driver/Inc/stm32f1xx_ll_gpio.h ****   *         @arg @ref LL_GPIO_PIN_5
 515:Drivers/STM32F1xx_HAL_Driver/Inc/stm32f1xx_ll_gpio.h ****   *         @arg @ref LL_GPIO_PIN_6
 516:Drivers/STM32F1xx_HAL_Driver/Inc/stm32f1xx_ll_gpio.h ****   *         @arg @ref LL_GPIO_PIN_7
 517:Drivers/STM32F1xx_HAL_Driver/Inc/stm32f1xx_ll_gpio.h ****   *         @arg @ref LL_GPIO_PIN_8
 518:Drivers/STM32F1xx_HAL_Driver/Inc/stm32f1xx_ll_gpio.h ****   *         @arg @ref LL_GPIO_PIN_9
 519:Drivers/STM32F1xx_HAL_Driver/Inc/stm32f1xx_ll_gpio.h ****   *         @arg @ref LL_GPIO_PIN_10
 520:Drivers/STM32F1xx_HAL_Driver/Inc/stm32f1xx_ll_gpio.h ****   *         @arg @ref LL_GPIO_PIN_11
 521:Drivers/STM32F1xx_HAL_Driver/Inc/stm32f1xx_ll_gpio.h ****   *         @arg @ref LL_GPIO_PIN_12
 522:Drivers/STM32F1xx_HAL_Driver/Inc/stm32f1xx_ll_gpio.h ****   *         @arg @ref LL_GPIO_PIN_13
 523:Drivers/STM32F1xx_HAL_Driver/Inc/stm32f1xx_ll_gpio.h ****   *         @arg @ref LL_GPIO_PIN_14
 524:Drivers/STM32F1xx_HAL_Driver/Inc/stm32f1xx_ll_gpio.h ****   *         @arg @ref LL_GPIO_PIN_15
 525:Drivers/STM32F1xx_HAL_Driver/Inc/stm32f1xx_ll_gpio.h ****   *         @arg @ref LL_GPIO_PIN_ALL
 526:Drivers/STM32F1xx_HAL_Driver/Inc/stm32f1xx_ll_gpio.h ****   * @retval Returned value can be one of the following values:
 527:Drivers/STM32F1xx_HAL_Driver/Inc/stm32f1xx_ll_gpio.h ****   *         @arg @ref LL_GPIO_OUTPUT_PUSHPULL
ARM GAS  /run/user/1000/ccey5E38.s 			page 29


 528:Drivers/STM32F1xx_HAL_Driver/Inc/stm32f1xx_ll_gpio.h ****   *         @arg @ref LL_GPIO_OUTPUT_OPENDRAIN
 529:Drivers/STM32F1xx_HAL_Driver/Inc/stm32f1xx_ll_gpio.h ****   */
 530:Drivers/STM32F1xx_HAL_Driver/Inc/stm32f1xx_ll_gpio.h **** __STATIC_INLINE uint32_t LL_GPIO_GetPinOutputType(GPIO_TypeDef *GPIOx, uint32_t Pin)
 531:Drivers/STM32F1xx_HAL_Driver/Inc/stm32f1xx_ll_gpio.h **** {
 532:Drivers/STM32F1xx_HAL_Driver/Inc/stm32f1xx_ll_gpio.h ****   register uint32_t *pReg = (uint32_t *)((uint32_t)((uint32_t)(&GPIOx->CRL) + (Pin >> 24)));
 533:Drivers/STM32F1xx_HAL_Driver/Inc/stm32f1xx_ll_gpio.h ****   return (READ_BIT(*pReg, (GPIO_CRL_CNF0_0 << (POSITION_VAL(Pin) * 4U))) >> (POSITION_VAL(Pin) * 4U
 534:Drivers/STM32F1xx_HAL_Driver/Inc/stm32f1xx_ll_gpio.h **** 
 535:Drivers/STM32F1xx_HAL_Driver/Inc/stm32f1xx_ll_gpio.h **** }
 536:Drivers/STM32F1xx_HAL_Driver/Inc/stm32f1xx_ll_gpio.h **** 
 537:Drivers/STM32F1xx_HAL_Driver/Inc/stm32f1xx_ll_gpio.h **** /**
 538:Drivers/STM32F1xx_HAL_Driver/Inc/stm32f1xx_ll_gpio.h ****   * @brief  Configure gpio pull-up or pull-down for a dedicated pin on a dedicated port.
 539:Drivers/STM32F1xx_HAL_Driver/Inc/stm32f1xx_ll_gpio.h ****   * @note   Warning: only one pin can be passed as parameter.
 540:Drivers/STM32F1xx_HAL_Driver/Inc/stm32f1xx_ll_gpio.h ****   * @rmtoll ODR        ODR         LL_GPIO_SetPinPull
 541:Drivers/STM32F1xx_HAL_Driver/Inc/stm32f1xx_ll_gpio.h ****   * @param  GPIOx GPIO Port
 542:Drivers/STM32F1xx_HAL_Driver/Inc/stm32f1xx_ll_gpio.h ****   * @param  Pin This parameter can be one of the following values:
 543:Drivers/STM32F1xx_HAL_Driver/Inc/stm32f1xx_ll_gpio.h ****   *         @arg @ref LL_GPIO_PIN_0
 544:Drivers/STM32F1xx_HAL_Driver/Inc/stm32f1xx_ll_gpio.h ****   *         @arg @ref LL_GPIO_PIN_1
 545:Drivers/STM32F1xx_HAL_Driver/Inc/stm32f1xx_ll_gpio.h ****   *         @arg @ref LL_GPIO_PIN_2
 546:Drivers/STM32F1xx_HAL_Driver/Inc/stm32f1xx_ll_gpio.h ****   *         @arg @ref LL_GPIO_PIN_3
 547:Drivers/STM32F1xx_HAL_Driver/Inc/stm32f1xx_ll_gpio.h ****   *         @arg @ref LL_GPIO_PIN_4
 548:Drivers/STM32F1xx_HAL_Driver/Inc/stm32f1xx_ll_gpio.h ****   *         @arg @ref LL_GPIO_PIN_5
 549:Drivers/STM32F1xx_HAL_Driver/Inc/stm32f1xx_ll_gpio.h ****   *         @arg @ref LL_GPIO_PIN_6
 550:Drivers/STM32F1xx_HAL_Driver/Inc/stm32f1xx_ll_gpio.h ****   *         @arg @ref LL_GPIO_PIN_7
 551:Drivers/STM32F1xx_HAL_Driver/Inc/stm32f1xx_ll_gpio.h ****   *         @arg @ref LL_GPIO_PIN_8
 552:Drivers/STM32F1xx_HAL_Driver/Inc/stm32f1xx_ll_gpio.h ****   *         @arg @ref LL_GPIO_PIN_9
 553:Drivers/STM32F1xx_HAL_Driver/Inc/stm32f1xx_ll_gpio.h ****   *         @arg @ref LL_GPIO_PIN_10
 554:Drivers/STM32F1xx_HAL_Driver/Inc/stm32f1xx_ll_gpio.h ****   *         @arg @ref LL_GPIO_PIN_11
 555:Drivers/STM32F1xx_HAL_Driver/Inc/stm32f1xx_ll_gpio.h ****   *         @arg @ref LL_GPIO_PIN_12
 556:Drivers/STM32F1xx_HAL_Driver/Inc/stm32f1xx_ll_gpio.h ****   *         @arg @ref LL_GPIO_PIN_13
 557:Drivers/STM32F1xx_HAL_Driver/Inc/stm32f1xx_ll_gpio.h ****   *         @arg @ref LL_GPIO_PIN_14
 558:Drivers/STM32F1xx_HAL_Driver/Inc/stm32f1xx_ll_gpio.h ****   *         @arg @ref LL_GPIO_PIN_15
 559:Drivers/STM32F1xx_HAL_Driver/Inc/stm32f1xx_ll_gpio.h ****   * @param  Pull This parameter can be one of the following values:
 560:Drivers/STM32F1xx_HAL_Driver/Inc/stm32f1xx_ll_gpio.h ****   *         @arg @ref LL_GPIO_PULL_DOWN
 561:Drivers/STM32F1xx_HAL_Driver/Inc/stm32f1xx_ll_gpio.h ****   *         @arg @ref LL_GPIO_PULL_UP
 562:Drivers/STM32F1xx_HAL_Driver/Inc/stm32f1xx_ll_gpio.h ****   * @retval None
 563:Drivers/STM32F1xx_HAL_Driver/Inc/stm32f1xx_ll_gpio.h ****   */
 564:Drivers/STM32F1xx_HAL_Driver/Inc/stm32f1xx_ll_gpio.h **** __STATIC_INLINE void LL_GPIO_SetPinPull(GPIO_TypeDef *GPIOx, uint32_t Pin, uint32_t Pull)
 565:Drivers/STM32F1xx_HAL_Driver/Inc/stm32f1xx_ll_gpio.h **** {
 566:Drivers/STM32F1xx_HAL_Driver/Inc/stm32f1xx_ll_gpio.h ****   MODIFY_REG(GPIOx->ODR, (Pin >> GPIO_PIN_MASK_POS), Pull << (POSITION_VAL(Pin >> GPIO_PIN_MASK_POS
 567:Drivers/STM32F1xx_HAL_Driver/Inc/stm32f1xx_ll_gpio.h **** }
 568:Drivers/STM32F1xx_HAL_Driver/Inc/stm32f1xx_ll_gpio.h **** 
 569:Drivers/STM32F1xx_HAL_Driver/Inc/stm32f1xx_ll_gpio.h **** /**
 570:Drivers/STM32F1xx_HAL_Driver/Inc/stm32f1xx_ll_gpio.h ****   * @brief  Return gpio pull-up or pull-down for a dedicated pin on a dedicated port
 571:Drivers/STM32F1xx_HAL_Driver/Inc/stm32f1xx_ll_gpio.h ****   * @note   Warning: only one pin can be passed as parameter.
 572:Drivers/STM32F1xx_HAL_Driver/Inc/stm32f1xx_ll_gpio.h ****   * @rmtoll ODR        ODR         LL_GPIO_GetPinPull
 573:Drivers/STM32F1xx_HAL_Driver/Inc/stm32f1xx_ll_gpio.h ****   * @param  GPIOx GPIO Port
 574:Drivers/STM32F1xx_HAL_Driver/Inc/stm32f1xx_ll_gpio.h ****   * @param  Pin This parameter can be one of the following values:
 575:Drivers/STM32F1xx_HAL_Driver/Inc/stm32f1xx_ll_gpio.h ****   *         @arg @ref LL_GPIO_PIN_0
 576:Drivers/STM32F1xx_HAL_Driver/Inc/stm32f1xx_ll_gpio.h ****   *         @arg @ref LL_GPIO_PIN_1
 577:Drivers/STM32F1xx_HAL_Driver/Inc/stm32f1xx_ll_gpio.h ****   *         @arg @ref LL_GPIO_PIN_2
 578:Drivers/STM32F1xx_HAL_Driver/Inc/stm32f1xx_ll_gpio.h ****   *         @arg @ref LL_GPIO_PIN_3
 579:Drivers/STM32F1xx_HAL_Driver/Inc/stm32f1xx_ll_gpio.h ****   *         @arg @ref LL_GPIO_PIN_4
 580:Drivers/STM32F1xx_HAL_Driver/Inc/stm32f1xx_ll_gpio.h ****   *         @arg @ref LL_GPIO_PIN_5
 581:Drivers/STM32F1xx_HAL_Driver/Inc/stm32f1xx_ll_gpio.h ****   *         @arg @ref LL_GPIO_PIN_6
 582:Drivers/STM32F1xx_HAL_Driver/Inc/stm32f1xx_ll_gpio.h ****   *         @arg @ref LL_GPIO_PIN_7
 583:Drivers/STM32F1xx_HAL_Driver/Inc/stm32f1xx_ll_gpio.h ****   *         @arg @ref LL_GPIO_PIN_8
 584:Drivers/STM32F1xx_HAL_Driver/Inc/stm32f1xx_ll_gpio.h ****   *         @arg @ref LL_GPIO_PIN_9
ARM GAS  /run/user/1000/ccey5E38.s 			page 30


 585:Drivers/STM32F1xx_HAL_Driver/Inc/stm32f1xx_ll_gpio.h ****   *         @arg @ref LL_GPIO_PIN_10
 586:Drivers/STM32F1xx_HAL_Driver/Inc/stm32f1xx_ll_gpio.h ****   *         @arg @ref LL_GPIO_PIN_11
 587:Drivers/STM32F1xx_HAL_Driver/Inc/stm32f1xx_ll_gpio.h ****   *         @arg @ref LL_GPIO_PIN_12
 588:Drivers/STM32F1xx_HAL_Driver/Inc/stm32f1xx_ll_gpio.h ****   *         @arg @ref LL_GPIO_PIN_13
 589:Drivers/STM32F1xx_HAL_Driver/Inc/stm32f1xx_ll_gpio.h ****   *         @arg @ref LL_GPIO_PIN_14
 590:Drivers/STM32F1xx_HAL_Driver/Inc/stm32f1xx_ll_gpio.h ****   *         @arg @ref LL_GPIO_PIN_15
 591:Drivers/STM32F1xx_HAL_Driver/Inc/stm32f1xx_ll_gpio.h ****   * @retval Returned value can be one of the following values:
 592:Drivers/STM32F1xx_HAL_Driver/Inc/stm32f1xx_ll_gpio.h ****   *         @arg @ref LL_GPIO_PULL_DOWN
 593:Drivers/STM32F1xx_HAL_Driver/Inc/stm32f1xx_ll_gpio.h ****   *         @arg @ref LL_GPIO_PULL_UP
 594:Drivers/STM32F1xx_HAL_Driver/Inc/stm32f1xx_ll_gpio.h ****   */
 595:Drivers/STM32F1xx_HAL_Driver/Inc/stm32f1xx_ll_gpio.h **** __STATIC_INLINE uint32_t LL_GPIO_GetPinPull(GPIO_TypeDef *GPIOx, uint32_t Pin)
 596:Drivers/STM32F1xx_HAL_Driver/Inc/stm32f1xx_ll_gpio.h **** {
 597:Drivers/STM32F1xx_HAL_Driver/Inc/stm32f1xx_ll_gpio.h ****   return (READ_BIT(GPIOx->ODR, (GPIO_ODR_ODR0 << (POSITION_VAL(Pin >> GPIO_PIN_MASK_POS)))) >> (POS
 598:Drivers/STM32F1xx_HAL_Driver/Inc/stm32f1xx_ll_gpio.h **** }
 599:Drivers/STM32F1xx_HAL_Driver/Inc/stm32f1xx_ll_gpio.h **** 
 600:Drivers/STM32F1xx_HAL_Driver/Inc/stm32f1xx_ll_gpio.h **** /**
 601:Drivers/STM32F1xx_HAL_Driver/Inc/stm32f1xx_ll_gpio.h ****   * @brief  Lock configuration of several pins for a dedicated port.
 602:Drivers/STM32F1xx_HAL_Driver/Inc/stm32f1xx_ll_gpio.h ****   * @note   When the lock sequence has been applied on a port bit, the
 603:Drivers/STM32F1xx_HAL_Driver/Inc/stm32f1xx_ll_gpio.h ****   *         value of this port bit can no longer be modified until the
 604:Drivers/STM32F1xx_HAL_Driver/Inc/stm32f1xx_ll_gpio.h ****   *         next reset.
 605:Drivers/STM32F1xx_HAL_Driver/Inc/stm32f1xx_ll_gpio.h ****   * @note   Each lock bit freezes a specific configuration register
 606:Drivers/STM32F1xx_HAL_Driver/Inc/stm32f1xx_ll_gpio.h ****   *         (control and alternate function registers).
 607:Drivers/STM32F1xx_HAL_Driver/Inc/stm32f1xx_ll_gpio.h ****   * @rmtoll LCKR         LCKK          LL_GPIO_LockPin
 608:Drivers/STM32F1xx_HAL_Driver/Inc/stm32f1xx_ll_gpio.h ****   * @param  GPIOx GPIO Port
 609:Drivers/STM32F1xx_HAL_Driver/Inc/stm32f1xx_ll_gpio.h ****   * @param  PinMask This parameter can be a combination of the following values:
 610:Drivers/STM32F1xx_HAL_Driver/Inc/stm32f1xx_ll_gpio.h ****   *         @arg @ref LL_GPIO_PIN_0
 611:Drivers/STM32F1xx_HAL_Driver/Inc/stm32f1xx_ll_gpio.h ****   *         @arg @ref LL_GPIO_PIN_1
 612:Drivers/STM32F1xx_HAL_Driver/Inc/stm32f1xx_ll_gpio.h ****   *         @arg @ref LL_GPIO_PIN_2
 613:Drivers/STM32F1xx_HAL_Driver/Inc/stm32f1xx_ll_gpio.h ****   *         @arg @ref LL_GPIO_PIN_3
 614:Drivers/STM32F1xx_HAL_Driver/Inc/stm32f1xx_ll_gpio.h ****   *         @arg @ref LL_GPIO_PIN_4
 615:Drivers/STM32F1xx_HAL_Driver/Inc/stm32f1xx_ll_gpio.h ****   *         @arg @ref LL_GPIO_PIN_5
 616:Drivers/STM32F1xx_HAL_Driver/Inc/stm32f1xx_ll_gpio.h ****   *         @arg @ref LL_GPIO_PIN_6
 617:Drivers/STM32F1xx_HAL_Driver/Inc/stm32f1xx_ll_gpio.h ****   *         @arg @ref LL_GPIO_PIN_7
 618:Drivers/STM32F1xx_HAL_Driver/Inc/stm32f1xx_ll_gpio.h ****   *         @arg @ref LL_GPIO_PIN_8
 619:Drivers/STM32F1xx_HAL_Driver/Inc/stm32f1xx_ll_gpio.h ****   *         @arg @ref LL_GPIO_PIN_9
 620:Drivers/STM32F1xx_HAL_Driver/Inc/stm32f1xx_ll_gpio.h ****   *         @arg @ref LL_GPIO_PIN_10
 621:Drivers/STM32F1xx_HAL_Driver/Inc/stm32f1xx_ll_gpio.h ****   *         @arg @ref LL_GPIO_PIN_11
 622:Drivers/STM32F1xx_HAL_Driver/Inc/stm32f1xx_ll_gpio.h ****   *         @arg @ref LL_GPIO_PIN_12
 623:Drivers/STM32F1xx_HAL_Driver/Inc/stm32f1xx_ll_gpio.h ****   *         @arg @ref LL_GPIO_PIN_13
 624:Drivers/STM32F1xx_HAL_Driver/Inc/stm32f1xx_ll_gpio.h ****   *         @arg @ref LL_GPIO_PIN_14
 625:Drivers/STM32F1xx_HAL_Driver/Inc/stm32f1xx_ll_gpio.h ****   *         @arg @ref LL_GPIO_PIN_15
 626:Drivers/STM32F1xx_HAL_Driver/Inc/stm32f1xx_ll_gpio.h ****   *         @arg @ref LL_GPIO_PIN_ALL
 627:Drivers/STM32F1xx_HAL_Driver/Inc/stm32f1xx_ll_gpio.h ****   * @retval None
 628:Drivers/STM32F1xx_HAL_Driver/Inc/stm32f1xx_ll_gpio.h ****   */
 629:Drivers/STM32F1xx_HAL_Driver/Inc/stm32f1xx_ll_gpio.h **** __STATIC_INLINE void LL_GPIO_LockPin(GPIO_TypeDef *GPIOx, uint32_t PinMask)
 630:Drivers/STM32F1xx_HAL_Driver/Inc/stm32f1xx_ll_gpio.h **** {
 631:Drivers/STM32F1xx_HAL_Driver/Inc/stm32f1xx_ll_gpio.h ****   __IO uint32_t temp;
 632:Drivers/STM32F1xx_HAL_Driver/Inc/stm32f1xx_ll_gpio.h ****   WRITE_REG(GPIOx->LCKR, GPIO_LCKR_LCKK | ((PinMask >> GPIO_PIN_MASK_POS) & 0x0000FFFFU));
 633:Drivers/STM32F1xx_HAL_Driver/Inc/stm32f1xx_ll_gpio.h ****   WRITE_REG(GPIOx->LCKR, ((PinMask >> GPIO_PIN_MASK_POS) & 0x0000FFFFU));
 634:Drivers/STM32F1xx_HAL_Driver/Inc/stm32f1xx_ll_gpio.h ****   WRITE_REG(GPIOx->LCKR, GPIO_LCKR_LCKK | ((PinMask >> GPIO_PIN_MASK_POS) & 0x0000FFFFU));
 635:Drivers/STM32F1xx_HAL_Driver/Inc/stm32f1xx_ll_gpio.h ****   temp = READ_REG(GPIOx->LCKR);
 636:Drivers/STM32F1xx_HAL_Driver/Inc/stm32f1xx_ll_gpio.h ****   (void) temp;
 637:Drivers/STM32F1xx_HAL_Driver/Inc/stm32f1xx_ll_gpio.h **** }
 638:Drivers/STM32F1xx_HAL_Driver/Inc/stm32f1xx_ll_gpio.h **** 
 639:Drivers/STM32F1xx_HAL_Driver/Inc/stm32f1xx_ll_gpio.h **** /**
 640:Drivers/STM32F1xx_HAL_Driver/Inc/stm32f1xx_ll_gpio.h ****   * @brief  Return 1 if all pins passed as parameter, of a dedicated port, are locked. else Return 
 641:Drivers/STM32F1xx_HAL_Driver/Inc/stm32f1xx_ll_gpio.h ****   * @rmtoll LCKR         LCKy          LL_GPIO_IsPinLocked
ARM GAS  /run/user/1000/ccey5E38.s 			page 31


 642:Drivers/STM32F1xx_HAL_Driver/Inc/stm32f1xx_ll_gpio.h ****   * @param  GPIOx GPIO Port
 643:Drivers/STM32F1xx_HAL_Driver/Inc/stm32f1xx_ll_gpio.h ****   * @param  PinMask This parameter can be a combination of the following values:
 644:Drivers/STM32F1xx_HAL_Driver/Inc/stm32f1xx_ll_gpio.h ****   *         @arg @ref LL_GPIO_PIN_0
 645:Drivers/STM32F1xx_HAL_Driver/Inc/stm32f1xx_ll_gpio.h ****   *         @arg @ref LL_GPIO_PIN_1
 646:Drivers/STM32F1xx_HAL_Driver/Inc/stm32f1xx_ll_gpio.h ****   *         @arg @ref LL_GPIO_PIN_2
 647:Drivers/STM32F1xx_HAL_Driver/Inc/stm32f1xx_ll_gpio.h ****   *         @arg @ref LL_GPIO_PIN_3
 648:Drivers/STM32F1xx_HAL_Driver/Inc/stm32f1xx_ll_gpio.h ****   *         @arg @ref LL_GPIO_PIN_4
 649:Drivers/STM32F1xx_HAL_Driver/Inc/stm32f1xx_ll_gpio.h ****   *         @arg @ref LL_GPIO_PIN_5
 650:Drivers/STM32F1xx_HAL_Driver/Inc/stm32f1xx_ll_gpio.h ****   *         @arg @ref LL_GPIO_PIN_6
 651:Drivers/STM32F1xx_HAL_Driver/Inc/stm32f1xx_ll_gpio.h ****   *         @arg @ref LL_GPIO_PIN_7
 652:Drivers/STM32F1xx_HAL_Driver/Inc/stm32f1xx_ll_gpio.h ****   *         @arg @ref LL_GPIO_PIN_8
 653:Drivers/STM32F1xx_HAL_Driver/Inc/stm32f1xx_ll_gpio.h ****   *         @arg @ref LL_GPIO_PIN_9
 654:Drivers/STM32F1xx_HAL_Driver/Inc/stm32f1xx_ll_gpio.h ****   *         @arg @ref LL_GPIO_PIN_10
 655:Drivers/STM32F1xx_HAL_Driver/Inc/stm32f1xx_ll_gpio.h ****   *         @arg @ref LL_GPIO_PIN_11
 656:Drivers/STM32F1xx_HAL_Driver/Inc/stm32f1xx_ll_gpio.h ****   *         @arg @ref LL_GPIO_PIN_12
 657:Drivers/STM32F1xx_HAL_Driver/Inc/stm32f1xx_ll_gpio.h ****   *         @arg @ref LL_GPIO_PIN_13
 658:Drivers/STM32F1xx_HAL_Driver/Inc/stm32f1xx_ll_gpio.h ****   *         @arg @ref LL_GPIO_PIN_14
 659:Drivers/STM32F1xx_HAL_Driver/Inc/stm32f1xx_ll_gpio.h ****   *         @arg @ref LL_GPIO_PIN_15
 660:Drivers/STM32F1xx_HAL_Driver/Inc/stm32f1xx_ll_gpio.h ****   *         @arg @ref LL_GPIO_PIN_ALL
 661:Drivers/STM32F1xx_HAL_Driver/Inc/stm32f1xx_ll_gpio.h ****   * @retval State of bit (1 or 0).
 662:Drivers/STM32F1xx_HAL_Driver/Inc/stm32f1xx_ll_gpio.h ****   */
 663:Drivers/STM32F1xx_HAL_Driver/Inc/stm32f1xx_ll_gpio.h **** __STATIC_INLINE uint32_t LL_GPIO_IsPinLocked(GPIO_TypeDef *GPIOx, uint32_t PinMask)
 664:Drivers/STM32F1xx_HAL_Driver/Inc/stm32f1xx_ll_gpio.h **** {
 665:Drivers/STM32F1xx_HAL_Driver/Inc/stm32f1xx_ll_gpio.h ****   return (READ_BIT(GPIOx->LCKR, ((PinMask >> GPIO_PIN_MASK_POS) & 0x0000FFFFU)) == ((PinMask >> GPI
 666:Drivers/STM32F1xx_HAL_Driver/Inc/stm32f1xx_ll_gpio.h **** }
 667:Drivers/STM32F1xx_HAL_Driver/Inc/stm32f1xx_ll_gpio.h **** 
 668:Drivers/STM32F1xx_HAL_Driver/Inc/stm32f1xx_ll_gpio.h **** /**
 669:Drivers/STM32F1xx_HAL_Driver/Inc/stm32f1xx_ll_gpio.h ****   * @brief  Return 1 if one of the pin of a dedicated port is locked. else return 0.
 670:Drivers/STM32F1xx_HAL_Driver/Inc/stm32f1xx_ll_gpio.h ****   * @rmtoll LCKR         LCKK          LL_GPIO_IsAnyPinLocked
 671:Drivers/STM32F1xx_HAL_Driver/Inc/stm32f1xx_ll_gpio.h ****   * @param  GPIOx GPIO Port
 672:Drivers/STM32F1xx_HAL_Driver/Inc/stm32f1xx_ll_gpio.h ****   * @retval State of bit (1 or 0).
 673:Drivers/STM32F1xx_HAL_Driver/Inc/stm32f1xx_ll_gpio.h ****   */
 674:Drivers/STM32F1xx_HAL_Driver/Inc/stm32f1xx_ll_gpio.h **** __STATIC_INLINE uint32_t LL_GPIO_IsAnyPinLocked(GPIO_TypeDef *GPIOx)
 675:Drivers/STM32F1xx_HAL_Driver/Inc/stm32f1xx_ll_gpio.h **** {
 676:Drivers/STM32F1xx_HAL_Driver/Inc/stm32f1xx_ll_gpio.h ****   return (READ_BIT(GPIOx->LCKR, GPIO_LCKR_LCKK) == (GPIO_LCKR_LCKK));
 677:Drivers/STM32F1xx_HAL_Driver/Inc/stm32f1xx_ll_gpio.h **** }
 678:Drivers/STM32F1xx_HAL_Driver/Inc/stm32f1xx_ll_gpio.h **** 
 679:Drivers/STM32F1xx_HAL_Driver/Inc/stm32f1xx_ll_gpio.h **** /**
 680:Drivers/STM32F1xx_HAL_Driver/Inc/stm32f1xx_ll_gpio.h ****   * @}
 681:Drivers/STM32F1xx_HAL_Driver/Inc/stm32f1xx_ll_gpio.h ****   */
 682:Drivers/STM32F1xx_HAL_Driver/Inc/stm32f1xx_ll_gpio.h **** 
 683:Drivers/STM32F1xx_HAL_Driver/Inc/stm32f1xx_ll_gpio.h **** /** @defgroup GPIO_LL_EF_Data_Access Data Access
 684:Drivers/STM32F1xx_HAL_Driver/Inc/stm32f1xx_ll_gpio.h ****   * @{
 685:Drivers/STM32F1xx_HAL_Driver/Inc/stm32f1xx_ll_gpio.h ****   */
 686:Drivers/STM32F1xx_HAL_Driver/Inc/stm32f1xx_ll_gpio.h **** 
 687:Drivers/STM32F1xx_HAL_Driver/Inc/stm32f1xx_ll_gpio.h **** /**
 688:Drivers/STM32F1xx_HAL_Driver/Inc/stm32f1xx_ll_gpio.h ****   * @brief  Return full input data register value for a dedicated port.
 689:Drivers/STM32F1xx_HAL_Driver/Inc/stm32f1xx_ll_gpio.h ****   * @rmtoll IDR          IDy           LL_GPIO_ReadInputPort
 690:Drivers/STM32F1xx_HAL_Driver/Inc/stm32f1xx_ll_gpio.h ****   * @param  GPIOx GPIO Port
 691:Drivers/STM32F1xx_HAL_Driver/Inc/stm32f1xx_ll_gpio.h ****   * @retval Input data register value of port
 692:Drivers/STM32F1xx_HAL_Driver/Inc/stm32f1xx_ll_gpio.h ****   */
 693:Drivers/STM32F1xx_HAL_Driver/Inc/stm32f1xx_ll_gpio.h **** __STATIC_INLINE uint32_t LL_GPIO_ReadInputPort(GPIO_TypeDef *GPIOx)
 694:Drivers/STM32F1xx_HAL_Driver/Inc/stm32f1xx_ll_gpio.h **** {
 695:Drivers/STM32F1xx_HAL_Driver/Inc/stm32f1xx_ll_gpio.h ****   return (READ_REG(GPIOx->IDR));
 696:Drivers/STM32F1xx_HAL_Driver/Inc/stm32f1xx_ll_gpio.h **** }
 697:Drivers/STM32F1xx_HAL_Driver/Inc/stm32f1xx_ll_gpio.h **** 
 698:Drivers/STM32F1xx_HAL_Driver/Inc/stm32f1xx_ll_gpio.h **** /**
ARM GAS  /run/user/1000/ccey5E38.s 			page 32


 699:Drivers/STM32F1xx_HAL_Driver/Inc/stm32f1xx_ll_gpio.h ****   * @brief  Return if input data level for several pins of dedicated port is high or low.
 700:Drivers/STM32F1xx_HAL_Driver/Inc/stm32f1xx_ll_gpio.h ****   * @rmtoll IDR          IDy           LL_GPIO_IsInputPinSet
 701:Drivers/STM32F1xx_HAL_Driver/Inc/stm32f1xx_ll_gpio.h ****   * @param  GPIOx GPIO Port
 702:Drivers/STM32F1xx_HAL_Driver/Inc/stm32f1xx_ll_gpio.h ****   * @param  PinMask This parameter can be a combination of the following values:
 703:Drivers/STM32F1xx_HAL_Driver/Inc/stm32f1xx_ll_gpio.h ****   *         @arg @ref LL_GPIO_PIN_0
 704:Drivers/STM32F1xx_HAL_Driver/Inc/stm32f1xx_ll_gpio.h ****   *         @arg @ref LL_GPIO_PIN_1
 705:Drivers/STM32F1xx_HAL_Driver/Inc/stm32f1xx_ll_gpio.h ****   *         @arg @ref LL_GPIO_PIN_2
 706:Drivers/STM32F1xx_HAL_Driver/Inc/stm32f1xx_ll_gpio.h ****   *         @arg @ref LL_GPIO_PIN_3
 707:Drivers/STM32F1xx_HAL_Driver/Inc/stm32f1xx_ll_gpio.h ****   *         @arg @ref LL_GPIO_PIN_4
 708:Drivers/STM32F1xx_HAL_Driver/Inc/stm32f1xx_ll_gpio.h ****   *         @arg @ref LL_GPIO_PIN_5
 709:Drivers/STM32F1xx_HAL_Driver/Inc/stm32f1xx_ll_gpio.h ****   *         @arg @ref LL_GPIO_PIN_6
 710:Drivers/STM32F1xx_HAL_Driver/Inc/stm32f1xx_ll_gpio.h ****   *         @arg @ref LL_GPIO_PIN_7
 711:Drivers/STM32F1xx_HAL_Driver/Inc/stm32f1xx_ll_gpio.h ****   *         @arg @ref LL_GPIO_PIN_8
 712:Drivers/STM32F1xx_HAL_Driver/Inc/stm32f1xx_ll_gpio.h ****   *         @arg @ref LL_GPIO_PIN_9
 713:Drivers/STM32F1xx_HAL_Driver/Inc/stm32f1xx_ll_gpio.h ****   *         @arg @ref LL_GPIO_PIN_10
 714:Drivers/STM32F1xx_HAL_Driver/Inc/stm32f1xx_ll_gpio.h ****   *         @arg @ref LL_GPIO_PIN_11
 715:Drivers/STM32F1xx_HAL_Driver/Inc/stm32f1xx_ll_gpio.h ****   *         @arg @ref LL_GPIO_PIN_12
 716:Drivers/STM32F1xx_HAL_Driver/Inc/stm32f1xx_ll_gpio.h ****   *         @arg @ref LL_GPIO_PIN_13
 717:Drivers/STM32F1xx_HAL_Driver/Inc/stm32f1xx_ll_gpio.h ****   *         @arg @ref LL_GPIO_PIN_14
 718:Drivers/STM32F1xx_HAL_Driver/Inc/stm32f1xx_ll_gpio.h ****   *         @arg @ref LL_GPIO_PIN_15
 719:Drivers/STM32F1xx_HAL_Driver/Inc/stm32f1xx_ll_gpio.h ****   *         @arg @ref LL_GPIO_PIN_ALL
 720:Drivers/STM32F1xx_HAL_Driver/Inc/stm32f1xx_ll_gpio.h ****   * @retval State of bit (1 or 0).
 721:Drivers/STM32F1xx_HAL_Driver/Inc/stm32f1xx_ll_gpio.h ****   */
 722:Drivers/STM32F1xx_HAL_Driver/Inc/stm32f1xx_ll_gpio.h **** __STATIC_INLINE uint32_t LL_GPIO_IsInputPinSet(GPIO_TypeDef *GPIOx, uint32_t PinMask)
 723:Drivers/STM32F1xx_HAL_Driver/Inc/stm32f1xx_ll_gpio.h **** {
 724:Drivers/STM32F1xx_HAL_Driver/Inc/stm32f1xx_ll_gpio.h ****   return (READ_BIT(GPIOx->IDR, (PinMask >> GPIO_PIN_MASK_POS) & 0x0000FFFFU) == ((PinMask >> GPIO_P
 725:Drivers/STM32F1xx_HAL_Driver/Inc/stm32f1xx_ll_gpio.h **** }
 726:Drivers/STM32F1xx_HAL_Driver/Inc/stm32f1xx_ll_gpio.h **** 
 727:Drivers/STM32F1xx_HAL_Driver/Inc/stm32f1xx_ll_gpio.h **** /**
 728:Drivers/STM32F1xx_HAL_Driver/Inc/stm32f1xx_ll_gpio.h ****   * @brief  Write output data register for the port.
 729:Drivers/STM32F1xx_HAL_Driver/Inc/stm32f1xx_ll_gpio.h ****   * @rmtoll ODR          ODy           LL_GPIO_WriteOutputPort
 730:Drivers/STM32F1xx_HAL_Driver/Inc/stm32f1xx_ll_gpio.h ****   * @param  GPIOx GPIO Port
 731:Drivers/STM32F1xx_HAL_Driver/Inc/stm32f1xx_ll_gpio.h ****   * @param  PortValue Level value for each pin of the port
 732:Drivers/STM32F1xx_HAL_Driver/Inc/stm32f1xx_ll_gpio.h ****   * @retval None
 733:Drivers/STM32F1xx_HAL_Driver/Inc/stm32f1xx_ll_gpio.h ****   */
 734:Drivers/STM32F1xx_HAL_Driver/Inc/stm32f1xx_ll_gpio.h **** __STATIC_INLINE void LL_GPIO_WriteOutputPort(GPIO_TypeDef *GPIOx, uint32_t PortValue)
 735:Drivers/STM32F1xx_HAL_Driver/Inc/stm32f1xx_ll_gpio.h **** {
 736:Drivers/STM32F1xx_HAL_Driver/Inc/stm32f1xx_ll_gpio.h ****   WRITE_REG(GPIOx->ODR, PortValue);
 737:Drivers/STM32F1xx_HAL_Driver/Inc/stm32f1xx_ll_gpio.h **** }
 738:Drivers/STM32F1xx_HAL_Driver/Inc/stm32f1xx_ll_gpio.h **** 
 739:Drivers/STM32F1xx_HAL_Driver/Inc/stm32f1xx_ll_gpio.h **** /**
 740:Drivers/STM32F1xx_HAL_Driver/Inc/stm32f1xx_ll_gpio.h ****   * @brief  Return full output data register value for a dedicated port.
 741:Drivers/STM32F1xx_HAL_Driver/Inc/stm32f1xx_ll_gpio.h ****   * @rmtoll ODR          ODy           LL_GPIO_ReadOutputPort
 742:Drivers/STM32F1xx_HAL_Driver/Inc/stm32f1xx_ll_gpio.h ****   * @param  GPIOx GPIO Port
 743:Drivers/STM32F1xx_HAL_Driver/Inc/stm32f1xx_ll_gpio.h ****   * @retval Output data register value of port
 744:Drivers/STM32F1xx_HAL_Driver/Inc/stm32f1xx_ll_gpio.h ****   */
 745:Drivers/STM32F1xx_HAL_Driver/Inc/stm32f1xx_ll_gpio.h **** __STATIC_INLINE uint32_t LL_GPIO_ReadOutputPort(GPIO_TypeDef *GPIOx)
 746:Drivers/STM32F1xx_HAL_Driver/Inc/stm32f1xx_ll_gpio.h **** {
 747:Drivers/STM32F1xx_HAL_Driver/Inc/stm32f1xx_ll_gpio.h ****   return (uint32_t)(READ_REG(GPIOx->ODR));
 748:Drivers/STM32F1xx_HAL_Driver/Inc/stm32f1xx_ll_gpio.h **** }
 749:Drivers/STM32F1xx_HAL_Driver/Inc/stm32f1xx_ll_gpio.h **** 
 750:Drivers/STM32F1xx_HAL_Driver/Inc/stm32f1xx_ll_gpio.h **** /**
 751:Drivers/STM32F1xx_HAL_Driver/Inc/stm32f1xx_ll_gpio.h ****   * @brief  Return if input data level for several pins of dedicated port is high or low.
 752:Drivers/STM32F1xx_HAL_Driver/Inc/stm32f1xx_ll_gpio.h ****   * @rmtoll ODR          ODy           LL_GPIO_IsOutputPinSet
 753:Drivers/STM32F1xx_HAL_Driver/Inc/stm32f1xx_ll_gpio.h ****   * @param  GPIOx GPIO Port
 754:Drivers/STM32F1xx_HAL_Driver/Inc/stm32f1xx_ll_gpio.h ****   * @param  PinMask This parameter can be a combination of the following values:
 755:Drivers/STM32F1xx_HAL_Driver/Inc/stm32f1xx_ll_gpio.h ****   *         @arg @ref LL_GPIO_PIN_0
ARM GAS  /run/user/1000/ccey5E38.s 			page 33


 756:Drivers/STM32F1xx_HAL_Driver/Inc/stm32f1xx_ll_gpio.h ****   *         @arg @ref LL_GPIO_PIN_1
 757:Drivers/STM32F1xx_HAL_Driver/Inc/stm32f1xx_ll_gpio.h ****   *         @arg @ref LL_GPIO_PIN_2
 758:Drivers/STM32F1xx_HAL_Driver/Inc/stm32f1xx_ll_gpio.h ****   *         @arg @ref LL_GPIO_PIN_3
 759:Drivers/STM32F1xx_HAL_Driver/Inc/stm32f1xx_ll_gpio.h ****   *         @arg @ref LL_GPIO_PIN_4
 760:Drivers/STM32F1xx_HAL_Driver/Inc/stm32f1xx_ll_gpio.h ****   *         @arg @ref LL_GPIO_PIN_5
 761:Drivers/STM32F1xx_HAL_Driver/Inc/stm32f1xx_ll_gpio.h ****   *         @arg @ref LL_GPIO_PIN_6
 762:Drivers/STM32F1xx_HAL_Driver/Inc/stm32f1xx_ll_gpio.h ****   *         @arg @ref LL_GPIO_PIN_7
 763:Drivers/STM32F1xx_HAL_Driver/Inc/stm32f1xx_ll_gpio.h ****   *         @arg @ref LL_GPIO_PIN_8
 764:Drivers/STM32F1xx_HAL_Driver/Inc/stm32f1xx_ll_gpio.h ****   *         @arg @ref LL_GPIO_PIN_9
 765:Drivers/STM32F1xx_HAL_Driver/Inc/stm32f1xx_ll_gpio.h ****   *         @arg @ref LL_GPIO_PIN_10
 766:Drivers/STM32F1xx_HAL_Driver/Inc/stm32f1xx_ll_gpio.h ****   *         @arg @ref LL_GPIO_PIN_11
 767:Drivers/STM32F1xx_HAL_Driver/Inc/stm32f1xx_ll_gpio.h ****   *         @arg @ref LL_GPIO_PIN_12
 768:Drivers/STM32F1xx_HAL_Driver/Inc/stm32f1xx_ll_gpio.h ****   *         @arg @ref LL_GPIO_PIN_13
 769:Drivers/STM32F1xx_HAL_Driver/Inc/stm32f1xx_ll_gpio.h ****   *         @arg @ref LL_GPIO_PIN_14
 770:Drivers/STM32F1xx_HAL_Driver/Inc/stm32f1xx_ll_gpio.h ****   *         @arg @ref LL_GPIO_PIN_15
 771:Drivers/STM32F1xx_HAL_Driver/Inc/stm32f1xx_ll_gpio.h ****   *         @arg @ref LL_GPIO_PIN_ALL
 772:Drivers/STM32F1xx_HAL_Driver/Inc/stm32f1xx_ll_gpio.h ****   * @retval State of bit (1 or 0).
 773:Drivers/STM32F1xx_HAL_Driver/Inc/stm32f1xx_ll_gpio.h ****   */
 774:Drivers/STM32F1xx_HAL_Driver/Inc/stm32f1xx_ll_gpio.h **** __STATIC_INLINE uint32_t LL_GPIO_IsOutputPinSet(GPIO_TypeDef *GPIOx, uint32_t PinMask)
 775:Drivers/STM32F1xx_HAL_Driver/Inc/stm32f1xx_ll_gpio.h **** {
 776:Drivers/STM32F1xx_HAL_Driver/Inc/stm32f1xx_ll_gpio.h ****   return (READ_BIT(GPIOx->ODR, (PinMask >> GPIO_PIN_MASK_POS) & 0x0000FFFFU) == ((PinMask >> GPIO_P
 777:Drivers/STM32F1xx_HAL_Driver/Inc/stm32f1xx_ll_gpio.h **** }
 778:Drivers/STM32F1xx_HAL_Driver/Inc/stm32f1xx_ll_gpio.h **** 
 779:Drivers/STM32F1xx_HAL_Driver/Inc/stm32f1xx_ll_gpio.h **** /**
 780:Drivers/STM32F1xx_HAL_Driver/Inc/stm32f1xx_ll_gpio.h ****   * @brief  Set several pins to high level on dedicated gpio port.
 781:Drivers/STM32F1xx_HAL_Driver/Inc/stm32f1xx_ll_gpio.h ****   * @rmtoll BSRR         BSy           LL_GPIO_SetOutputPin
 782:Drivers/STM32F1xx_HAL_Driver/Inc/stm32f1xx_ll_gpio.h ****   * @param  GPIOx GPIO Port
 783:Drivers/STM32F1xx_HAL_Driver/Inc/stm32f1xx_ll_gpio.h ****   * @param  PinMask This parameter can be a combination of the following values:
 784:Drivers/STM32F1xx_HAL_Driver/Inc/stm32f1xx_ll_gpio.h ****   *         @arg @ref LL_GPIO_PIN_0
 785:Drivers/STM32F1xx_HAL_Driver/Inc/stm32f1xx_ll_gpio.h ****   *         @arg @ref LL_GPIO_PIN_1
 786:Drivers/STM32F1xx_HAL_Driver/Inc/stm32f1xx_ll_gpio.h ****   *         @arg @ref LL_GPIO_PIN_2
 787:Drivers/STM32F1xx_HAL_Driver/Inc/stm32f1xx_ll_gpio.h ****   *         @arg @ref LL_GPIO_PIN_3
 788:Drivers/STM32F1xx_HAL_Driver/Inc/stm32f1xx_ll_gpio.h ****   *         @arg @ref LL_GPIO_PIN_4
 789:Drivers/STM32F1xx_HAL_Driver/Inc/stm32f1xx_ll_gpio.h ****   *         @arg @ref LL_GPIO_PIN_5
 790:Drivers/STM32F1xx_HAL_Driver/Inc/stm32f1xx_ll_gpio.h ****   *         @arg @ref LL_GPIO_PIN_6
 791:Drivers/STM32F1xx_HAL_Driver/Inc/stm32f1xx_ll_gpio.h ****   *         @arg @ref LL_GPIO_PIN_7
 792:Drivers/STM32F1xx_HAL_Driver/Inc/stm32f1xx_ll_gpio.h ****   *         @arg @ref LL_GPIO_PIN_8
 793:Drivers/STM32F1xx_HAL_Driver/Inc/stm32f1xx_ll_gpio.h ****   *         @arg @ref LL_GPIO_PIN_9
 794:Drivers/STM32F1xx_HAL_Driver/Inc/stm32f1xx_ll_gpio.h ****   *         @arg @ref LL_GPIO_PIN_10
 795:Drivers/STM32F1xx_HAL_Driver/Inc/stm32f1xx_ll_gpio.h ****   *         @arg @ref LL_GPIO_PIN_11
 796:Drivers/STM32F1xx_HAL_Driver/Inc/stm32f1xx_ll_gpio.h ****   *         @arg @ref LL_GPIO_PIN_12
 797:Drivers/STM32F1xx_HAL_Driver/Inc/stm32f1xx_ll_gpio.h ****   *         @arg @ref LL_GPIO_PIN_13
 798:Drivers/STM32F1xx_HAL_Driver/Inc/stm32f1xx_ll_gpio.h ****   *         @arg @ref LL_GPIO_PIN_14
 799:Drivers/STM32F1xx_HAL_Driver/Inc/stm32f1xx_ll_gpio.h ****   *         @arg @ref LL_GPIO_PIN_15
 800:Drivers/STM32F1xx_HAL_Driver/Inc/stm32f1xx_ll_gpio.h ****   *         @arg @ref LL_GPIO_PIN_ALL
 801:Drivers/STM32F1xx_HAL_Driver/Inc/stm32f1xx_ll_gpio.h ****   * @retval None
 802:Drivers/STM32F1xx_HAL_Driver/Inc/stm32f1xx_ll_gpio.h ****   */
 803:Drivers/STM32F1xx_HAL_Driver/Inc/stm32f1xx_ll_gpio.h **** __STATIC_INLINE void LL_GPIO_SetOutputPin(GPIO_TypeDef *GPIOx, uint32_t PinMask)
 498              		.loc 3 803 22 view .LVU150
 499              	.LBB13:
 804:Drivers/STM32F1xx_HAL_Driver/Inc/stm32f1xx_ll_gpio.h **** {
 805:Drivers/STM32F1xx_HAL_Driver/Inc/stm32f1xx_ll_gpio.h ****   WRITE_REG(GPIOx->BSRR, (PinMask >> GPIO_PIN_MASK_POS) & 0x0000FFFFU);
 500              		.loc 3 805 3 view .LVU151
 501 0174 3B4B     		ldr	r3, .L35+24
 502 0176 0222     		movs	r2, #2
 503 0178 1A61     		str	r2, [r3, #16]
 504              	.LVL42:
ARM GAS  /run/user/1000/ccey5E38.s 			page 34


 505              	.L28:
 506              		.loc 3 805 3 is_stmt 0 view .LVU152
 507              	.LBE13:
 508              	.LBE12:
 214:Core/Src/main.c ****             status = nRF24_GetStatus();
 509              		.loc 1 214 9 is_stmt 1 view .LVU153
 215:Core/Src/main.c ****             if (status & (nRF24_FLAG_TX_DS | nRF24_FLAG_MAX_RT)) {
 510              		.loc 1 215 13 view .LVU154
 215:Core/Src/main.c ****             if (status & (nRF24_FLAG_TX_DS | nRF24_FLAG_MAX_RT)) {
 511              		.loc 1 215 22 is_stmt 0 view .LVU155
 512 017a FFF7FEFF 		bl	nRF24_GetStatus
 513              	.LVL43:
 216:Core/Src/main.c ****                 break;
 514              		.loc 1 216 13 is_stmt 1 view .LVU156
 216:Core/Src/main.c ****                 break;
 515              		.loc 1 216 16 is_stmt 0 view .LVU157
 516 017e 10F0300F 		tst	r0, #48
 517 0182 FAD0     		beq	.L28
 220:Core/Src/main.c ****         nRF24_ClearIRQFlags();
 518              		.loc 1 220 9 is_stmt 1 view .LVU158
 519              	.LVL44:
 520              	.LBB14:
 521              	.LBI14:
 806:Drivers/STM32F1xx_HAL_Driver/Inc/stm32f1xx_ll_gpio.h **** }
 807:Drivers/STM32F1xx_HAL_Driver/Inc/stm32f1xx_ll_gpio.h **** 
 808:Drivers/STM32F1xx_HAL_Driver/Inc/stm32f1xx_ll_gpio.h **** /**
 809:Drivers/STM32F1xx_HAL_Driver/Inc/stm32f1xx_ll_gpio.h ****   * @brief  Set several pins to low level on dedicated gpio port.
 810:Drivers/STM32F1xx_HAL_Driver/Inc/stm32f1xx_ll_gpio.h ****   * @rmtoll BRR          BRy           LL_GPIO_ResetOutputPin
 811:Drivers/STM32F1xx_HAL_Driver/Inc/stm32f1xx_ll_gpio.h ****   * @param  GPIOx GPIO Port
 812:Drivers/STM32F1xx_HAL_Driver/Inc/stm32f1xx_ll_gpio.h ****   * @param  PinMask This parameter can be a combination of the following values:
 813:Drivers/STM32F1xx_HAL_Driver/Inc/stm32f1xx_ll_gpio.h ****   *         @arg @ref LL_GPIO_PIN_0
 814:Drivers/STM32F1xx_HAL_Driver/Inc/stm32f1xx_ll_gpio.h ****   *         @arg @ref LL_GPIO_PIN_1
 815:Drivers/STM32F1xx_HAL_Driver/Inc/stm32f1xx_ll_gpio.h ****   *         @arg @ref LL_GPIO_PIN_2
 816:Drivers/STM32F1xx_HAL_Driver/Inc/stm32f1xx_ll_gpio.h ****   *         @arg @ref LL_GPIO_PIN_3
 817:Drivers/STM32F1xx_HAL_Driver/Inc/stm32f1xx_ll_gpio.h ****   *         @arg @ref LL_GPIO_PIN_4
 818:Drivers/STM32F1xx_HAL_Driver/Inc/stm32f1xx_ll_gpio.h ****   *         @arg @ref LL_GPIO_PIN_5
 819:Drivers/STM32F1xx_HAL_Driver/Inc/stm32f1xx_ll_gpio.h ****   *         @arg @ref LL_GPIO_PIN_6
 820:Drivers/STM32F1xx_HAL_Driver/Inc/stm32f1xx_ll_gpio.h ****   *         @arg @ref LL_GPIO_PIN_7
 821:Drivers/STM32F1xx_HAL_Driver/Inc/stm32f1xx_ll_gpio.h ****   *         @arg @ref LL_GPIO_PIN_8
 822:Drivers/STM32F1xx_HAL_Driver/Inc/stm32f1xx_ll_gpio.h ****   *         @arg @ref LL_GPIO_PIN_9
 823:Drivers/STM32F1xx_HAL_Driver/Inc/stm32f1xx_ll_gpio.h ****   *         @arg @ref LL_GPIO_PIN_10
 824:Drivers/STM32F1xx_HAL_Driver/Inc/stm32f1xx_ll_gpio.h ****   *         @arg @ref LL_GPIO_PIN_11
 825:Drivers/STM32F1xx_HAL_Driver/Inc/stm32f1xx_ll_gpio.h ****   *         @arg @ref LL_GPIO_PIN_12
 826:Drivers/STM32F1xx_HAL_Driver/Inc/stm32f1xx_ll_gpio.h ****   *         @arg @ref LL_GPIO_PIN_13
 827:Drivers/STM32F1xx_HAL_Driver/Inc/stm32f1xx_ll_gpio.h ****   *         @arg @ref LL_GPIO_PIN_14
 828:Drivers/STM32F1xx_HAL_Driver/Inc/stm32f1xx_ll_gpio.h ****   *         @arg @ref LL_GPIO_PIN_15
 829:Drivers/STM32F1xx_HAL_Driver/Inc/stm32f1xx_ll_gpio.h ****   *         @arg @ref LL_GPIO_PIN_ALL
 830:Drivers/STM32F1xx_HAL_Driver/Inc/stm32f1xx_ll_gpio.h ****   * @retval None
 831:Drivers/STM32F1xx_HAL_Driver/Inc/stm32f1xx_ll_gpio.h ****   */
 832:Drivers/STM32F1xx_HAL_Driver/Inc/stm32f1xx_ll_gpio.h **** __STATIC_INLINE void LL_GPIO_ResetOutputPin(GPIO_TypeDef *GPIOx, uint32_t PinMask)
 522              		.loc 3 832 22 view .LVU159
 523              	.LBB15:
 833:Drivers/STM32F1xx_HAL_Driver/Inc/stm32f1xx_ll_gpio.h **** {
 834:Drivers/STM32F1xx_HAL_Driver/Inc/stm32f1xx_ll_gpio.h ****   WRITE_REG(GPIOx->BRR, (PinMask >> GPIO_PIN_MASK_POS) & 0x0000FFFFU);
 524              		.loc 3 834 3 view .LVU160
 525 0184 374B     		ldr	r3, .L35+24
 526 0186 0222     		movs	r2, #2
ARM GAS  /run/user/1000/ccey5E38.s 			page 35


 527 0188 5A61     		str	r2, [r3, #20]
 528              	.LVL45:
 529              		.loc 3 834 3 is_stmt 0 view .LVU161
 530              	.LBE15:
 531              	.LBE14:
 221:Core/Src/main.c ****     /* USER CODE END WHILE */
 532              		.loc 1 221 9 is_stmt 1 view .LVU162
 533 018a FFF7FEFF 		bl	nRF24_ClearIRQFlags
 534              	.LVL46:
 221:Core/Src/main.c ****     /* USER CODE END WHILE */
 535              		.loc 1 221 9 is_stmt 0 view .LVU163
 536              	.LBE11:
 149:Core/Src/main.c ****         volatile int32_t x_axis, y_axis, twist; 
 537              		.loc 1 149 11 is_stmt 1 view .LVU164
 538              	.L29:
 149:Core/Src/main.c ****         volatile int32_t x_axis, y_axis, twist; 
 539              		.loc 1 149 5 view .LVU165
 540              	.LBB16:
 150:Core/Src/main.c ****         adc_channel = 0;
 541              		.loc 1 150 9 view .LVU166
 151:Core/Src/main.c ****         x_axis = 0;
 542              		.loc 1 151 9 view .LVU167
 152:Core/Src/main.c ****         y_axis = 0;
 543              		.loc 1 152 9 view .LVU168
 152:Core/Src/main.c ****         y_axis = 0;
 544              		.loc 1 152 16 is_stmt 0 view .LVU169
 545 018e 0023     		movs	r3, #0
 546 0190 0193     		str	r3, [sp, #4]
 153:Core/Src/main.c ****         twist = 0;
 547              		.loc 1 153 9 is_stmt 1 view .LVU170
 153:Core/Src/main.c ****         twist = 0;
 548              		.loc 1 153 16 is_stmt 0 view .LVU171
 549 0192 0293     		str	r3, [sp, #8]
 154:Core/Src/main.c ****         if (HAL_GetTick() - timestamp >= 5) {
 550              		.loc 1 154 9 is_stmt 1 view .LVU172
 154:Core/Src/main.c ****         if (HAL_GetTick() - timestamp >= 5) {
 551              		.loc 1 154 15 is_stmt 0 view .LVU173
 552 0194 0393     		str	r3, [sp, #12]
 155:Core/Src/main.c ****             while(adc_channel < TOTAL_CHANNELS) {
 553              		.loc 1 155 9 is_stmt 1 view .LVU174
 155:Core/Src/main.c ****             while(adc_channel < TOTAL_CHANNELS) {
 554              		.loc 1 155 13 is_stmt 0 view .LVU175
 555 0196 FFF7FEFF 		bl	HAL_GetTick
 556              	.LVL47:
 155:Core/Src/main.c ****             while(adc_channel < TOTAL_CHANNELS) {
 557              		.loc 1 155 27 view .LVU176
 558 019a 031B     		subs	r3, r0, r4
 155:Core/Src/main.c ****             while(adc_channel < TOTAL_CHANNELS) {
 559              		.loc 1 155 12 view .LVU177
 560 019c 042B     		cmp	r3, #4
 561 019e E5D9     		bls	.L14
 151:Core/Src/main.c ****         x_axis = 0;
 562              		.loc 1 151 21 view .LVU178
 563 01a0 0024     		movs	r4, #0
 564              	.LVL48:
 151:Core/Src/main.c ****         x_axis = 0;
 565              		.loc 1 151 21 view .LVU179
ARM GAS  /run/user/1000/ccey5E38.s 			page 36


 566 01a2 78E7     		b	.L13
 567              	.LVL49:
 568              	.L19:
 180:Core/Src/main.c ****                 msg_tx.deserial.x_axis = (x_axis - X_TOP_BOUND) * 1000 / X_BOT_BOUND;
 569              		.loc 1 180 18 is_stmt 1 view .LVU180
 180:Core/Src/main.c ****                 msg_tx.deserial.x_axis = (x_axis - X_TOP_BOUND) * 1000 / X_BOT_BOUND;
 570              		.loc 1 180 29 is_stmt 0 view .LVU181
 571 01a4 019A     		ldr	r2, [sp, #4]
 180:Core/Src/main.c ****                 msg_tx.deserial.x_axis = (x_axis - X_TOP_BOUND) * 1000 / X_BOT_BOUND;
 572              		.loc 1 180 21 view .LVU182
 573 01a6 40F61603 		movw	r3, #2070
 574 01aa 9A42     		cmp	r2, r3
 575 01ac 13DD     		ble	.L21
 181:Core/Src/main.c ****             }
 576              		.loc 1 181 17 is_stmt 1 view .LVU183
 181:Core/Src/main.c ****             }
 577              		.loc 1 181 52 is_stmt 0 view .LVU184
 578 01ae 019B     		ldr	r3, [sp, #4]
 579 01b0 A3F2BE53 		subw	r3, r3, #1470
 181:Core/Src/main.c ****             }
 580              		.loc 1 181 65 view .LVU185
 581 01b4 4FF47A72 		mov	r2, #1000
 582 01b8 02FB03F3 		mul	r3, r2, r3
 181:Core/Src/main.c ****             }
 583              		.loc 1 181 72 view .LVU186
 584 01bc 264A     		ldr	r2, .L35+12
 585 01be 82FB0312 		smull	r1, r2, r2, r3
 586 01c2 1A44     		add	r2, r2, r3
 587 01c4 DB17     		asrs	r3, r3, #31
 588 01c6 C3EBA223 		rsb	r3, r3, r2, asr #10
 181:Core/Src/main.c ****             }
 589              		.loc 1 181 74 view .LVU187
 590 01ca A3F59673 		sub	r3, r3, #300
 591 01ce 1BB2     		sxth	r3, r3
 181:Core/Src/main.c ****             }
 592              		.loc 1 181 40 view .LVU188
 593 01d0 1E4A     		ldr	r2, .L35
 594 01d2 5380     		strh	r3, [r2, #2]	@ movhi
 595 01d4 93E7     		b	.L20
 596              	.L21:
 184:Core/Src/main.c ****             }
 597              		.loc 1 184 17 is_stmt 1 view .LVU189
 184:Core/Src/main.c ****             }
 598              		.loc 1 184 40 is_stmt 0 view .LVU190
 599 01d6 1D4B     		ldr	r3, .L35
 600 01d8 0022     		movs	r2, #0
 601 01da 5A80     		strh	r2, [r3, #2]	@ movhi
 602 01dc 8FE7     		b	.L20
 603              	.L22:
 190:Core/Src/main.c ****                 msg_tx.deserial.y_axis = (y_axis - Y_TOP_BOUND) * 1000 / Y_BOT_BOUND;
 604              		.loc 1 190 18 is_stmt 1 view .LVU191
 190:Core/Src/main.c ****                 msg_tx.deserial.y_axis = (y_axis - Y_TOP_BOUND) * 1000 / Y_BOT_BOUND;
 605              		.loc 1 190 29 is_stmt 0 view .LVU192
 606 01de 029B     		ldr	r3, [sp, #8]
 190:Core/Src/main.c ****                 msg_tx.deserial.y_axis = (y_axis - Y_TOP_BOUND) * 1000 / Y_BOT_BOUND;
 607              		.loc 1 190 21 view .LVU193
 608 01e0 B3F50B6F 		cmp	r3, #2224
ARM GAS  /run/user/1000/ccey5E38.s 			page 37


 609 01e4 12DB     		blt	.L24
 191:Core/Src/main.c ****             }
 610              		.loc 1 191 17 is_stmt 1 view .LVU194
 191:Core/Src/main.c ****             }
 611              		.loc 1 191 52 is_stmt 0 view .LVU195
 612 01e6 029B     		ldr	r3, [sp, #8]
 613 01e8 A3F21F73 		subw	r3, r3, #1823
 191:Core/Src/main.c ****             }
 614              		.loc 1 191 65 view .LVU196
 615 01ec 4FF47A72 		mov	r2, #1000
 616 01f0 02FB03F3 		mul	r3, r2, r3
 191:Core/Src/main.c ****             }
 617              		.loc 1 191 72 view .LVU197
 618 01f4 194A     		ldr	r2, .L35+16
 619 01f6 82FB0312 		smull	r1, r2, r2, r3
 620 01fa 1A44     		add	r2, r2, r3
 621 01fc DB17     		asrs	r3, r3, #31
 622 01fe C3EBA223 		rsb	r3, r3, r2, asr #10
 191:Core/Src/main.c ****             }
 623              		.loc 1 191 74 view .LVU198
 624 0202 C83B     		subs	r3, r3, #200
 625 0204 1BB2     		sxth	r3, r3
 191:Core/Src/main.c ****             }
 626              		.loc 1 191 40 view .LVU199
 627 0206 114A     		ldr	r2, .L35
 628 0208 9380     		strh	r3, [r2, #4]	@ movhi
 629 020a 8FE7     		b	.L23
 630              	.L24:
 194:Core/Src/main.c ****             }
 631              		.loc 1 194 17 is_stmt 1 view .LVU200
 194:Core/Src/main.c ****             }
 632              		.loc 1 194 40 is_stmt 0 view .LVU201
 633 020c 0F4B     		ldr	r3, .L35
 634 020e 0022     		movs	r2, #0
 635 0210 9A80     		strh	r2, [r3, #4]	@ movhi
 636 0212 8BE7     		b	.L23
 637              	.L25:
 200:Core/Src/main.c ****                 msg_tx.deserial.twist = (twist - T_TOP_BOUND) * 1000 / T_BOT_BOUND;
 638              		.loc 1 200 18 is_stmt 1 view .LVU202
 200:Core/Src/main.c ****                 msg_tx.deserial.twist = (twist - T_TOP_BOUND) * 1000 / T_BOT_BOUND;
 639              		.loc 1 200 28 is_stmt 0 view .LVU203
 640 0214 039B     		ldr	r3, [sp, #12]
 200:Core/Src/main.c ****                 msg_tx.deserial.twist = (twist - T_TOP_BOUND) * 1000 / T_BOT_BOUND;
 641              		.loc 1 200 21 view .LVU204
 642 0216 B3F50B6F 		cmp	r3, #2224
 643 021a 12DB     		blt	.L27
 201:Core/Src/main.c ****             }
 644              		.loc 1 201 17 is_stmt 1 view .LVU205
 201:Core/Src/main.c ****             }
 645              		.loc 1 201 50 is_stmt 0 view .LVU206
 646 021c 039B     		ldr	r3, [sp, #12]
 647 021e A3F21F73 		subw	r3, r3, #1823
 201:Core/Src/main.c ****             }
 648              		.loc 1 201 63 view .LVU207
 649 0222 4FF47A72 		mov	r2, #1000
 650 0226 02FB03F3 		mul	r3, r2, r3
 201:Core/Src/main.c ****             }
ARM GAS  /run/user/1000/ccey5E38.s 			page 38


 651              		.loc 1 201 70 view .LVU208
 652 022a 0C4A     		ldr	r2, .L35+16
 653 022c 82FB0312 		smull	r1, r2, r2, r3
 654 0230 1A44     		add	r2, r2, r3
 655 0232 DB17     		asrs	r3, r3, #31
 656 0234 C3EBA223 		rsb	r3, r3, r2, asr #10
 201:Core/Src/main.c ****             }
 657              		.loc 1 201 72 view .LVU209
 658 0238 C83B     		subs	r3, r3, #200
 659 023a 1BB2     		sxth	r3, r3
 201:Core/Src/main.c ****             }
 660              		.loc 1 201 39 view .LVU210
 661 023c 034A     		ldr	r2, .L35
 662 023e D380     		strh	r3, [r2, #6]	@ movhi
 663 0240 8BE7     		b	.L26
 664              	.L27:
 204:Core/Src/main.c ****             }
 665              		.loc 1 204 17 is_stmt 1 view .LVU211
 204:Core/Src/main.c ****             }
 666              		.loc 1 204 39 is_stmt 0 view .LVU212
 667 0242 024B     		ldr	r3, .L35
 668 0244 0022     		movs	r2, #0
 669 0246 DA80     		strh	r2, [r3, #6]	@ movhi
 670 0248 87E7     		b	.L26
 671              	.L36:
 672 024a 00BF     		.align	2
 673              	.L35:
 674 024c 00000000 		.word	msg_tx
 675 0250 00000000 		.word	hadc1
 676 0254 00000000 		.word	.LANCHOR0
 677 0258 C99C1A94 		.word	-1810195255
 678 025c 73F19481 		.word	-2120945293
 679 0260 00080140 		.word	1073809408
 680 0264 000C0140 		.word	1073810432
 681              	.LBE16:
 682              		.cfi_endproc
 683              	.LFE127:
 685              		.global	button_down
 686              		.section	.bss.button_down,"aw",%nobits
 689              	button_down:
 690 0000 00       		.space	1
 691              		.global	msg_tx
 692              		.section	.bss.msg_tx,"aw",%nobits
 693              		.align	2
 696              	msg_tx:
 697 0000 00000000 		.space	8
 697      00000000 
 698              		.section	.rodata
 699              		.align	2
 700              		.set	.LANCHOR0,. + 0
 701              	.LC0:
 702 0000 01000000 		.ascii	"\001\000\000\000\377\000"
 702      FF00
 703              		.text
 704              	.Letext0:
 705              		.file 4 "/nix/store/g29lld3lmg7r15jj0vsvlvyxcrw1fpmx-gcc-arm-embedded-12.2.rel1/arm-none-eabi/incl
 706              		.file 5 "/nix/store/g29lld3lmg7r15jj0vsvlvyxcrw1fpmx-gcc-arm-embedded-12.2.rel1/arm-none-eabi/incl
ARM GAS  /run/user/1000/ccey5E38.s 			page 39


 707              		.file 6 "Drivers/CMSIS/Device/ST/STM32F1xx/Include/stm32f103xb.h"
 708              		.file 7 "Drivers/CMSIS/Device/ST/STM32F1xx/Include/stm32f1xx.h"
 709              		.file 8 "Drivers/STM32F1xx_HAL_Driver/Inc/stm32f1xx_hal_def.h"
 710              		.file 9 "Drivers/STM32F1xx_HAL_Driver/Inc/stm32f1xx_hal_rcc.h"
 711              		.file 10 "Drivers/STM32F1xx_HAL_Driver/Inc/stm32f1xx_hal_rcc_ex.h"
 712              		.file 11 "Drivers/STM32F1xx_HAL_Driver/Inc/stm32f1xx_hal_gpio.h"
 713              		.file 12 "Drivers/STM32F1xx_HAL_Driver/Inc/stm32f1xx_hal_dma.h"
 714              		.file 13 "Drivers/STM32F1xx_HAL_Driver/Inc/stm32f1xx_hal_adc.h"
 715              		.file 14 "Core/Inc/nrf24.h"
 716              		.file 15 "Core/Inc/adc.h"
 717              		.file 16 "Drivers/STM32F1xx_HAL_Driver/Inc/stm32f1xx_hal.h"
 718              		.file 17 "Drivers/STM32F1xx_HAL_Driver/Inc/stm32f1xx_hal_adc_ex.h"
 719              		.file 18 "Core/Inc/usb.h"
 720              		.file 19 "Core/Inc/spi.h"
 721              		.file 20 "Core/Inc/gpio.h"
 722              		.file 21 "<built-in>"
ARM GAS  /run/user/1000/ccey5E38.s 			page 40

